

HI-TECH Software PIC LITE Macro Assembler V1.00 build 12136 
                                                                                               Wed Jun 27 12:58:34 2012

HI-TECH Software Omniscient Code Generator (Lite mode) build 12136
     1  0000                     opt subtitle "HI-TECH Software Omniscient Code Generator (Lite mode) build 12136"
     2                           
     3                           opt pagewidth 120
     4                           
     5                           	opt lm
     6                           
     7                           	processor	16F876A
     8                           clrc	macro
     9                           	bcf	3,0
    10  0000                     	endm
    11                           clrz	macro
    12                           	bcf	3,2
    13  0000                     	endm
    14                           setc	macro
    15                           	bsf	3,0
    16  0000                     	endm
    17                           setz	macro
    18                           	bsf	3,2
    19  0000                     	endm
    20                           skipc	macro
    21                           	btfss	3,0
    22  0000                     	endm
    23                           skipz	macro
    24                           	btfss	3,2
    25  0000                     	endm
    26                           skipnc	macro
    27                           	btfsc	3,0
    28  0000                     	endm
    29                           skipnz	macro
    30                           	btfsc	3,2
    31  0000                     	endm
    32  0000                     indf	equ	0
    33  0000                     indf0	equ	0
    34  0002                     pc	equ	2
    35  0002                     pcl	equ	2
    36  0003                     status	equ	3
    37  0004                     fsr	equ	4
    38  0004                     fsr0	equ	4
    39  0001                     c	equ	1
    40  0000                     z	equ	0
    41  000A                     pclath	equ	10
    42                           # 17 "PR25.c"
    43                           psect config,class=CONFIG,delta=2 ;# 
    44                           # 17 "PR25.c"
    45  2007  3F32               dw 0x3F32 ;# 
    46                           	FNCALL	_main,_init
    47                           	FNCALL	_main,_lcd_clr
    48                           	FNCALL	_main,_lcd_goto
    49                           	FNCALL	_main,_send_string
    50                           	FNCALL	_main,_delay
    51                           	FNCALL	_main,_send_dec
    52                           	FNCALL	_init,_send_config
    53                           	FNCALL	_init,_delay
    54                           	FNCALL	_lcd_clr,_send_config
    55                           	FNCALL	_lcd_clr,_delay
    56                           	FNCALL	_lcd_goto,_send_config
    57                           	FNCALL	_send_string,_send_char
    58                           	FNCALL	_send_dec,___llmod
    59                           	FNCALL	_send_dec,___lldiv
    60                           	FNCALL	_send_dec,_send_char
    61                           	FNCALL	_send_config,_delay
    62                           	FNCALL	_send_config,_e_pulse
    63                           	FNCALL	_send_char,_delay
    64                           	FNCALL	_send_char,_e_pulse
    65                           	FNCALL	_e_pulse,_delay
    66                           	FNROOT	_main
    67                           	global	main@F1159
    68                           	global	main@F1157
    69                           psect	idataBANK0,class=CODE,space=0,delta=2
    70                           global __pidataBANK0
    71  00A9                     __pidataBANK0:
    72                           	file	"PR25.c"
    73                           	line	57
    74                           
    75                           ;initializer for main@F1159
    76  00A9  34B1               	retlw	0B1h
    77  00AA  3457               	retlw	057h
    78                           
    79  00AB  3400               	retlw	0
    80  00AC  3400               	retlw	0
    81                           
    82                           	line	56
    83                           
    84                           ;initializer for main@F1157
    85  00AD  347F               	retlw	07Fh
    86  00AE  3400               	retlw	0
    87                           	global	_PORTB
    88  0006                     _PORTB	set	0x6
    89                           	global	_RA0
    90  0028                     _RA0	set	0x28
    91                           	global	_RA1
    92  0029                     _RA1	set	0x29
    93                           	global	_RA4
    94  002C                     _RA4	set	0x2C
    95                           	global	_RC1
    96  0039                     _RC1	set	0x39
    97                           	global	_RC2
    98  003A                     _RC2	set	0x3A
    99                           	global	_RC3
   100  003B                     _RC3	set	0x3B
   101                           	global	_RC4
   102  003C                     _RC4	set	0x3C
   103                           	global	_RC5
   104  003D                     _RC5	set	0x3D
   105                           	global	_ADCON1
   106  009F                     _ADCON1	set	0x9F
   107                           	global	_TRISA
   108  0085                     _TRISA	set	0x85
   109                           	global	_TRISB
   110  0086                     _TRISB	set	0x86
   111                           	global	_TRISC
   112  0087                     _TRISC	set	0x87
   113                           psect	strings,class=STRING,delta=2
   114                           global __pstrings
   115  0003                     __pstrings:
   116                           ;	global	stringdir,stringtab,__stringbase
   117  0003                     stringtab:
   118                           ;	String table - string pointers are 1 byte each
   119  0003                     stringcode:stringdir:
      + 0003                     stringdir:	
   120  0003  3000               movlw high(stringdir)
   121  0004  008A               movwf pclath
   122  0005  0804               movf fsr,w
   123  0006  0A84               incf fsr
   124  0007  0782               	addwf pc
   125  0008                     __stringbase:
   126  0008  3400               	retlw	0
   127                           psect	strings
   128                           	
   129  0009                     STR_8:	
   130  0009  3455               	retlw	85	;'U'
   131  000A  3473               	retlw	115	;'s'
   132  000B  3465               	retlw	101	;'e'
   133  000C  3472               	retlw	114	;'r'
   134  000D  3420               	retlw	32	;' '
   135  000E  3469               	retlw	105	;'i'
   136  000F  3464               	retlw	100	;'d'
   137  0010  3465               	retlw	101	;'e'
   138  0011  346E               	retlw	110	;'n'
   139  0012  3474               	retlw	116	;'t'
   140  0013  3469               	retlw	105	;'i'
   141  0014  3466               	retlw	102	;'f'
   142  0015  3469               	retlw	105	;'i'
   143  0016  3465               	retlw	101	;'e'
   144  0017  3464               	retlw	100	;'d'
   145  0018  342E               	retlw	46	;'.'
   146  0019  3420               	retlw	32	;' '
   147  001A  3400               	retlw	0
   148                           psect	strings
   149                           	
   150  001B                     STR_5:	
   151  001B  3420               	retlw	32	;' '
   152  001C  3420               	retlw	32	;' '
   153  001D  3420               	retlw	32	;' '
   154  001E  3420               	retlw	32	;' '
   155  001F  3453               	retlw	83	;'S'
   156  0020  3461               	retlw	97	;'a'
   157  0021  3476               	retlw	118	;'v'
   158  0022  3465               	retlw	101	;'e'
   159  0023  3420               	retlw	32	;' '
   160  0024  346D               	retlw	109	;'m'
   161  0025  346F               	retlw	111	;'o'
   162  0026  3464               	retlw	100	;'d'
   163  0027  3465               	retlw	101	;'e'
   164  0028  3420               	retlw	32	;' '
   165  0029  3420               	retlw	32	;' '
   166  002A  3420               	retlw	32	;' '
   167  002B  3400               	retlw	0
   168                           psect	strings
   169                           	
   170  002C                     STR_14:	
   171  002C  3455               	retlw	85	;'U'
   172  002D  3473               	retlw	115	;'s'
   173  002E  3465               	retlw	101	;'e'
   174  002F  3472               	retlw	114	;'r'
   175  0030  3420               	retlw	32	;' '
   176  0031  346E               	retlw	110	;'n'
   177  0032  346F               	retlw	111	;'o'
   178  0033  3474               	retlw	116	;'t'
   179  0034  3420               	retlw	32	;' '
   180  0035  3466               	retlw	102	;'f'
   181  0036  346F               	retlw	111	;'o'
   182  0037  3475               	retlw	117	;'u'
   183  0038  346E               	retlw	110	;'n'
   184  0039  3464               	retlw	100	;'d'
   185  003A  342E               	retlw	46	;'.'
   186  003B  3400               	retlw	0
   187                           psect	strings
   188                           	
   189  003C                     STR_6:	
   190  003C  3420               	retlw	32	;' '
   191  003D  3450               	retlw	80	;'P'
   192  003E  346C               	retlw	108	;'l'
   193  003F  3461               	retlw	97	;'a'
   194  0040  3463               	retlw	99	;'c'
   195  0041  3465               	retlw	101	;'e'
   196  0042  3420               	retlw	32	;' '
   197  0043  3479               	retlw	121	;'y'
   198  0044  346F               	retlw	111	;'o'
   199  0045  3475               	retlw	117	;'u'
   200  0046  3472               	retlw	114	;'r'
   201  0047  3420               	retlw	32	;' '
   202  0048  3474               	retlw	116	;'t'
   203  0049  3461               	retlw	97	;'a'
   204  004A  3467               	retlw	103	;'g'
   205  004B  3400               	retlw	0
   206                           psect	strings
   207                           	
   208  004C                     STR_12:	
   209  004C  3455               	retlw	85	;'U'
   210  004D  3473               	retlw	115	;'s'
   211  004E  3465               	retlw	101	;'e'
   212  004F  3472               	retlw	114	;'r'
   213  0050  3420               	retlw	32	;' '
   214  0051  3449               	retlw	73	;'I'
   215  0052  3444               	retlw	68	;'D'
   216  0053  3420               	retlw	32	;' '
   217  0054  3473               	retlw	115	;'s'
   218  0055  3461               	retlw	97	;'a'
   219  0056  3476               	retlw	118	;'v'
   220  0057  3465               	retlw	101	;'e'
   221  0058  3464               	retlw	100	;'d'
   222  0059  342E               	retlw	46	;'.'
   223  005A  3400               	retlw	0
   224                           psect	strings
   225                           	
   226  005B                     STR_9:	
   227  005B  3444               	retlw	68	;'D'
   228  005C  346F               	retlw	111	;'o'
   229  005D  346F               	retlw	111	;'o'
   230  005E  3472               	retlw	114	;'r'
   231  005F  3420               	retlw	32	;' '
   232  0060  346C               	retlw	108	;'l'
   233  0061  346F               	retlw	111	;'o'
   234  0062  3463               	retlw	99	;'c'
   235  0063  346B               	retlw	107	;'k'
   236  0064  3420               	retlw	32	;' '
   237  0065  3477               	retlw	119	;'w'
   238  0066  3469               	retlw	105	;'i'
   239  0067  346C               	retlw	108	;'l'
   240  0068  346C               	retlw	108	;'l'
   241  0069  3400               	retlw	0
   242                           psect	strings
   243                           	
   244  006A                     STR_10:	
   245  006A  3462               	retlw	98	;'b'
   246  006B  3465               	retlw	101	;'e'
   247  006C  3420               	retlw	32	;' '
   248  006D  346C               	retlw	108	;'l'
   249  006E  346F               	retlw	111	;'o'
   250  006F  3463               	retlw	99	;'c'
   251  0070  346B               	retlw	107	;'k'
   252  0071  3465               	retlw	101	;'e'
   253  0072  3464               	retlw	100	;'d'
   254  0073  3420               	retlw	32	;' '
   255  0074  3469               	retlw	105	;'i'
   256  0075  346E               	retlw	110	;'n'
   257  0076  3420               	retlw	32	;' '
   258  0077  3400               	retlw	0
   259                           psect	strings
   260                           	
   261  0078                     STR_4:	
   262  0078  346F               	retlw	111	;'o'
   263  0079  346E               	retlw	110	;'n'
   264  007A  3420               	retlw	32	;' '
   265  007B  3474               	retlw	116	;'t'
   266  007C  3468               	retlw	104	;'h'
   267  007D  3465               	retlw	101	;'e'
   268  007E  3420               	retlw	32	;' '
   269  007F  3472               	retlw	114	;'r'
   270  0080  3465               	retlw	101	;'e'
   271  0081  3461               	retlw	97	;'a'
   272  0082  3464               	retlw	100	;'d'
   273  0083  3465               	retlw	101	;'e'
   274  0084  3472               	retlw	114	;'r'
   275  0085  3400               	retlw	0
   276                           psect	strings
   277                           	
   278  0086                     STR_1:	
   279  0086  3420               	retlw	32	;' '
   280  0087  3452               	retlw	82	;'R'
   281  0088  3446               	retlw	70	;'F'
   282  0089  3449               	retlw	73	;'I'
   283  008A  3444               	retlw	68	;'D'
   284  008B  3420               	retlw	32	;' '
   285  008C  3464               	retlw	100	;'d'
   286  008D  346F               	retlw	111	;'o'
   287  008E  346F               	retlw	111	;'o'
   288  008F  3472               	retlw	114	;'r'
   289  0090  3400               	retlw	0
   290                           psect	strings
   291                           	
   292  0091                     STR_2:	
   293  0091  3420               	retlw	32	;' '
   294  0092  3473               	retlw	115	;'s'
   295  0093  3465               	retlw	101	;'e'
   296  0094  3463               	retlw	99	;'c'
   297  0095  3475               	retlw	117	;'u'
   298  0096  3472               	retlw	114	;'r'
   299  0097  3469               	retlw	105	;'i'
   300  0098  3474               	retlw	116	;'t'
   301  0099  3479               	retlw	121	;'y'
   302  009A  3400               	retlw	0
   303                           psect	strings
   304                           	
   305  009B                     STR_7:	
   306  009B  3449               	retlw	73	;'I'
   307  009C  3444               	retlw	68	;'D'
   308  009D  3420               	retlw	32	;' '
   309  009E  346E               	retlw	110	;'n'
   310  009F  346F               	retlw	111	;'o'
   311  00A0  343A               	retlw	58	;':'
   312  00A1  3420               	retlw	32	;' '
   313  00A2  3400               	retlw	0
   314                           psect	strings
   315  003D                     STR_3	equ	STR_6+1
   316  009B                     STR_11	equ	STR_7+0
   317  009B                     STR_13	equ	STR_7+0
   318                           	file	"C:\Users\HATAKE~1\AppData\Local\Temp\s1hkk."
   319                           	line	#
   320                           psect cinit,class=CODE,delta=2
   321                           global start_initialization
   322  0F2C                     start_initialization:
   323                           
   324                           psect	dataBANK0,class=BANK0,space=1
   325                           global __pdataBANK0
   326  0053                     __pdataBANK0:
   327                           	file	"PR25.c"
   328                           	line	57
   329  0053                     main@F1159:
   330  0053                            ds      4
   331                           
   332                           psect	dataBANK0
   333                           	file	"PR25.c"
   334                           	line	56
   335  0057                     main@F1157:
   336  0057                            ds      2
   337                           
   338                           ; Initialize objects allocated to BANK0
   339                           	global __pidataBANK0
   340                           psect cinit,class=CODE,delta=2,merge=1
   341  0F2C  1283               	bcf	status, 5	;RP0=0, select bank0
   342  0F2D  1303               	bcf	status, 6	;RP1=0, select bank0
   343  0F2E  120A  118A  20A9   	fcall	__pidataBANK0+0		;fetch initializer
              120A  158A         
   344  0F33  00D3               	movwf	__pdataBANK0+0&07fh		
   345  0F34  120A  118A  20AA   	fcall	__pidataBANK0+1		;fetch initializer
              120A  158A         
   346  0F39  00D4               	movwf	__pdataBANK0+1&07fh		
   347  0F3A  120A  118A  20AB   	fcall	__pidataBANK0+2		;fetch initializer
              120A  158A         
   348  0F3F  00D5               	movwf	__pdataBANK0+2&07fh		
   349  0F40  120A  118A  20AC   	fcall	__pidataBANK0+3		;fetch initializer
              120A  158A         
   350  0F45  00D6               	movwf	__pdataBANK0+3&07fh		
   351  0F46  120A  118A  20AD   	fcall	__pidataBANK0+4		;fetch initializer
              120A  158A         
   352  0F4B  00D7               	movwf	__pdataBANK0+4&07fh		
   353  0F4C  120A  118A  20AE   	fcall	__pidataBANK0+5		;fetch initializer
              120A  158A         
   354  0F51  00D8               	movwf	__pdataBANK0+5&07fh		
   355                           psect cinit,class=CODE,delta=2,merge=1
   356                           global end_of_initialization
   357                           
   358                           ;End of C runtime variable initialization code
   359                           
   360  0F52                     end_of_initialization:
   361  0F52  0183               clrf status
   362  0F53  120A  118A  2B9D   ljmp _main	;jump to C main() function
   363                           psect	cstackCOMMON,class=COMMON,space=1
   364                           global __pcstackCOMMON
   365  0070                     __pcstackCOMMON:
   366                           	global	?_init
   367  0070                     ?_init:	; 0 bytes @ 0x0
   368                           	global	?_lcd_clr
   369  0070                     ?_lcd_clr:	; 0 bytes @ 0x0
   370                           	global	?_lcd_goto
   371  0070                     ?_lcd_goto:	; 0 bytes @ 0x0
   372                           	global	?_send_string
   373  0070                     ?_send_string:	; 0 bytes @ 0x0
   374                           	global	?_delay
   375  0070                     ?_delay:	; 0 bytes @ 0x0
   376                           	global	?_send_config
   377  0070                     ?_send_config:	; 0 bytes @ 0x0
   378                           	global	?_e_pulse
   379  0070                     ?_e_pulse:	; 0 bytes @ 0x0
   380                           	global	?_main
   381  0070                     ?_main:	; 0 bytes @ 0x0
   382                           	global	?_send_char
   383  0070                     ?_send_char:	; 0 bytes @ 0x0
   384                           	global	?___llmod
   385  0070                     ?___llmod:	; 4 bytes @ 0x0
   386                           	global	?___lldiv
   387  0070                     ?___lldiv:	; 4 bytes @ 0x0
   388                           	global	delay@data
   389  0070                     delay@data:	; 4 bytes @ 0x0
   390                           	global	___llmod@divisor
   391  0070                     ___llmod@divisor:	; 4 bytes @ 0x0
   392                           	global	___lldiv@divisor
   393  0070                     ___lldiv@divisor:	; 4 bytes @ 0x0
   394  0070                     	ds	4
   395                           	global	??_delay
   396  0074                     ??_delay:	; 0 bytes @ 0x4
   397                           	global	delay@i
   398  0074                     delay@i:	; 2 bytes @ 0x4
   399                           	global	___llmod@dividend
   400  0074                     ___llmod@dividend:	; 4 bytes @ 0x4
   401                           	global	___lldiv@dividend
   402  0074                     ___lldiv@dividend:	; 4 bytes @ 0x4
   403  0074                     	ds	2
   404                           	global	??_send_config
   405  0076                     ??_send_config:	; 0 bytes @ 0x6
   406                           	global	??_e_pulse
   407  0076                     ??_e_pulse:	; 0 bytes @ 0x6
   408                           	global	??_send_char
   409  0076                     ??_send_char:	; 0 bytes @ 0x6
   410                           	global	send_config@data
   411  0076                     send_config@data:	; 1 bytes @ 0x6
   412                           	global	send_char@data
   413  0076                     send_char@data:	; 1 bytes @ 0x6
   414  0076                     	ds	1
   415                           	global	??_init
   416  0077                     ??_init:	; 0 bytes @ 0x7
   417                           	global	??_lcd_clr
   418  0077                     ??_lcd_clr:	; 0 bytes @ 0x7
   419                           	global	??_lcd_goto
   420  0077                     ??_lcd_goto:	; 0 bytes @ 0x7
   421                           	global	??_send_string
   422  0077                     ??_send_string:	; 0 bytes @ 0x7
   423  0077                     	ds	1
   424                           	global	??___llmod
   425  0078                     ??___llmod:	; 0 bytes @ 0x8
   426                           	global	??___lldiv
   427  0078                     ??___lldiv:	; 0 bytes @ 0x8
   428                           	global	lcd_goto@data
   429  0078                     lcd_goto@data:	; 1 bytes @ 0x8
   430                           	global	send_string@s
   431  0078                     send_string@s:	; 1 bytes @ 0x8
   432  0078                     	ds	1
   433                           	global	___llmod@counter
   434  0079                     ___llmod@counter:	; 1 bytes @ 0x9
   435                           	global	___lldiv@quotient
   436  0079                     ___lldiv@quotient:	; 4 bytes @ 0x9
   437  0079                     	ds	4
   438                           	global	___lldiv@counter
   439  007D                     ___lldiv@counter:	; 1 bytes @ 0xD
   440  007D                     	ds	1
   441                           	global	??_send_dec
   442  007E                     ??_send_dec:	; 0 bytes @ 0xE
   443                           psect	cstackBANK0,class=BANK0,space=1
   444                           global __pcstackBANK0
   445  0020                     __pcstackBANK0:
   446                           	global	?_send_dec
   447  0020                     ?_send_dec:	; 0 bytes @ 0x0
   448                           	global	send_dec@data
   449  0020                     send_dec@data:	; 4 bytes @ 0x0
   450  0020                     	ds	4
   451                           	global	send_dec@num_dig
   452  0024                     send_dec@num_dig:	; 1 bytes @ 0x4
   453  0024                     	ds	1
   454                           	global	??_main
   455  0025                     ??_main:	; 0 bytes @ 0x5
   456  0025                     	ds	5
   457                           	global	main@data
   458  002A                     main@data:	; 26 bytes @ 0xA
   459  002A                     	ds	26
   460                           	global	main@database
   461  0044                     main@database:	; 1 bytes @ 0x24
   462  0044                     	ds	1
   463                           	global	main@id2
   464  0045                     main@id2:	; 4 bytes @ 0x25
   465  0045                     	ds	4
   466                           	global	main@id1
   467  0049                     main@id1:	; 2 bytes @ 0x29
   468  0049                     	ds	2
   469                           	global	main@a
   470  004B                     main@a:	; 1 bytes @ 0x2B
   471  004B                     	ds	1
   472                           	global	main@mode
   473  004C                     main@mode:	; 1 bytes @ 0x2C
   474  004C                     	ds	1
   475                           	global	main@b
   476  004D                     main@b:	; 1 bytes @ 0x2D
   477  004D                     	ds	1
   478                           	global	main@convert2
   479  004E                     main@convert2:	; 2 bytes @ 0x2E
   480  004E                     	ds	2
   481                           	global	main@convert1
   482  0050                     main@convert1:	; 1 bytes @ 0x30
   483  0050                     	ds	1
   484                           	global	main@repeat
   485  0051                     main@repeat:	; 1 bytes @ 0x31
   486  0051                     	ds	1
   487                           	global	main@i
   488  0052                     main@i:	; 1 bytes @ 0x32
   489  0052                     	ds	1
   490                           ;!
   491                           ;!Data Sizes:
   492                           ;!    Strings     154
   493                           ;!    Constant    0
   494                           ;!    Data        6
   495                           ;!    BSS         0
   496                           ;!    Persistent  0
   497                           ;!    Stack       0
   498                           ;!
   499                           ;!Auto Spaces:
   500                           ;!    Space          Size  Autos    Used
   501                           ;!    COMMON           14     14      14
   502                           ;!    BANK0            80     51      57
   503                           ;!    BANK1            80      0       0
   504                           ;!    BANK3            96      0       0
   505                           ;!    BANK2            96      0       0
   506                           
   507                           ;!
   508                           ;!Pointer List with Targets:
   509                           ;!
   510                           ;!    ?___lldiv	unsigned long  size(1) Largest target is 0
   511                           ;!
   512                           ;!    ?___llmod	unsigned long  size(1) Largest target is 0
   513                           ;!
   514                           ;!    send_string@s	PTR const unsigned char  size(1) Largest target is 18
   515                           ;!		 -> STR_14(CODE[16]), STR_13(CODE[8]), STR_12(CODE[15]), STR_11(CODE[8]), 
   516                           ;!		 -> STR_10(CODE[14]), STR_9(CODE[15]), STR_8(CODE[18]), STR_7(CODE[8]), 
   517                           ;!		 -> STR_6(CODE[16]), STR_5(CODE[17]), STR_4(CODE[14]), STR_3(CODE[15]), 
   518                           ;!		 -> STR_2(CODE[10]), STR_1(CODE[11]), 
   519                           ;!
   520                           
   521                           
   522                           ;!
   523                           ;!Critical Paths under _main in COMMON
   524                           ;!
   525                           ;!    _init->_send_config
   526                           ;!    _lcd_clr->_send_config
   527                           ;!    _lcd_goto->_send_config
   528                           ;!    _send_string->_send_char
   529                           ;!    _send_dec->___lldiv
   530                           ;!    _send_config->_delay
   531                           ;!    _send_char->_delay
   532                           ;!    _e_pulse->_delay
   533                           ;!
   534                           ;!Critical Paths under _main in BANK0
   535                           ;!
   536                           ;!    _main->_send_dec
   537                           ;!
   538                           ;!Critical Paths under _main in BANK1
   539                           ;!
   540                           ;!    None.
   541                           ;!
   542                           ;!Critical Paths under _main in BANK3
   543                           ;!
   544                           ;!    None.
   545                           ;!
   546                           ;!Critical Paths under _main in BANK2
   547                           ;!
   548                           ;!    None.
   549                           
   550 ;;
   551 ;;Main: autosize = 0, tempsize = 5, incstack = 0, save=0
   552 ;;
   553                           
   554                           ;!
   555                           ;!Call Graph Tables:
   556                           ;!
   557                           ;! ---------------------------------------------------------------------------------
   558                           ;! (Depth) Function   	        Calls       Base Space   Used Autos Params    Refs
   559                           ;! ---------------------------------------------------------------------------------
   560                           ;! (0) _main                                                46    46      0    3731
   561                           ;!                                              5 BANK0     46    46      0
   562                           ;!                               _init
   563                           ;!                            _lcd_clr
   564                           ;!                           _lcd_goto
   565                           ;!                        _send_string
   566                           ;!                              _delay
   567                           ;!                           _send_dec
   568                           ;! ---------------------------------------------------------------------------------
   569                           ;! (1) _init                                                 0     0      0     226
   570                           ;!                        _send_config
   571                           ;!                              _delay
   572                           ;! ---------------------------------------------------------------------------------
   573                           ;! (1) _lcd_clr                                              0     0      0     226
   574                           ;!                        _send_config
   575                           ;!                              _delay
   576                           ;! ---------------------------------------------------------------------------------
   577                           ;! (1) _lcd_goto                                             2     2      0     247
   578                           ;!                                              7 COMMON     2     2      0
   579                           ;!                        _send_config
   580                           ;! ---------------------------------------------------------------------------------
   581                           ;! (1) _send_string                                          2     2      0     225
   582                           ;!                                              7 COMMON     2     2      0
   583                           ;!                          _send_char
   584                           ;! ---------------------------------------------------------------------------------
   585                           ;! (1) _send_dec                                             5     0      5    1149
   586                           ;!                                              0 BANK0      5     0      5
   587                           ;!                            ___llmod
   588                           ;!                            ___lldiv
   589                           ;!                          _send_char
   590                           ;! ---------------------------------------------------------------------------------
   591                           ;! (2) _send_config                                          1     1      0     158
   592                           ;!                                              6 COMMON     1     1      0
   593                           ;!                              _delay
   594                           ;!                            _e_pulse
   595                           ;! ---------------------------------------------------------------------------------
   596                           ;! (2) _send_char                                            1     1      0     158
   597                           ;!                                              6 COMMON     1     1      0
   598                           ;!                              _delay
   599                           ;!                            _e_pulse
   600                           ;! ---------------------------------------------------------------------------------
   601                           ;! (3) _e_pulse                                              0     0      0      68
   602                           ;!                              _delay
   603                           ;! ---------------------------------------------------------------------------------
   604                           ;! (4) _delay                                                6     2      4      68
   605                           ;!                                              0 COMMON     6     2      4
   606                           ;! ---------------------------------------------------------------------------------
   607                           ;! (2) ___llmod                                             10     2      8     159
   608                           ;!                                              0 COMMON    10     2      8
   609                           ;! ---------------------------------------------------------------------------------
   610                           ;! (2) ___lldiv                                             14     6      8     162
   611                           ;!                                              0 COMMON    14     6      8
   612                           ;! ---------------------------------------------------------------------------------
   613                           ;! Estimated maximum stack depth 4
   614                           ;! ---------------------------------------------------------------------------------
   615                           ;!
   616                           ;! Call Graph Graphs:
   617                           ;!
   618                           ;! _main (ROOT)
   619                           ;!   _init
   620                           ;!     _send_config
   621                           ;!       _delay
   622                           ;!       _e_pulse
   623                           ;!         _delay
   624                           ;!     _delay
   625                           ;!   _lcd_clr
   626                           ;!     _send_config
   627                           ;!       _delay
   628                           ;!       _e_pulse
   629                           ;!         _delay
   630                           ;!     _delay
   631                           ;!   _lcd_goto
   632                           ;!     _send_config
   633                           ;!       _delay
   634                           ;!       _e_pulse
   635                           ;!         _delay
   636                           ;!   _send_string
   637                           ;!     _send_char
   638                           ;!       _delay
   639                           ;!       _e_pulse
   640                           ;!         _delay
   641                           ;!   _delay
   642                           ;!   _send_dec
   643                           ;!     ___llmod
   644                           ;!     ___lldiv
   645                           ;!     _send_char
   646                           ;!       _delay
   647                           ;!       _e_pulse
   648                           ;!         _delay
   649                           ;!
   650                           
   651                           ;! Address spaces:
   652                           
   653                           ;!Name               Size   Autos  Total    Cost      Usage
   654                           ;!BANK3               60      0       0       9        0.0%
   655                           ;!BITBANK3            60      0       0       8        0.0%
   656                           ;!SFR3                 0      0       0       4        0.0%
   657                           ;!BITSFR3              0      0       0       4        0.0%
   658                           ;!BANK2               60      0       0      11        0.0%
   659                           ;!BITBANK2            60      0       0      10        0.0%
   660                           ;!SFR2                 0      0       0       5        0.0%
   661                           ;!BITSFR2              0      0       0       5        0.0%
   662                           ;!BANK1               50      0       0       7        0.0%
   663                           ;!BITBANK1            50      0       0       6        0.0%
   664                           ;!SFR1                 0      0       0       2        0.0%
   665                           ;!BITSFR1              0      0       0       2        0.0%
   666                           ;!BANK0               50     33      39       5       71.3%
   667                           ;!BITBANK0            50      0       0       4        0.0%
   668                           ;!SFR0                 0      0       0       1        0.0%
   669                           ;!BITSFR0              0      0       0       1        0.0%
   670                           ;!COMMON               E      E       E       1      100.0%
   671                           ;!BITCOMMON            E      0       0       0        0.0%
   672                           ;!CODE                 0      0       0       0        0.0%
   673                           ;!DATA                 0      0      4B      12        0.0%
   674                           ;!ABS                  0      0      47       3        0.0%
   675                           ;!NULL                 0      0       0       0        0.0%
   676                           ;!STACK                0      0       4       2        0.0%
   677                           ;!EEDATA             100      0       0       0        0.0%
   678                           
   679                           	global	_main
   680                           
   681 ;; *************** function _main *****************
   682 ;; Defined at:
   683 ;;		line 50 in file "PR25.c"
   684 ;; Parameters:    Size  Location     Type
   685 ;;		None
   686 ;; Auto vars:     Size  Location     Type
   687 ;;  data           26   10[BANK0 ] unsigned char [26]
   688 ;;  id2             4   37[BANK0 ] unsigned int [2]
   689 ;;  convert2        2   46[BANK0 ] unsigned int 
   690 ;;  id1             2   41[BANK0 ] unsigned char [2]
   691 ;;  i               1   50[BANK0 ] unsigned char 
   692 ;;  repeat          1   49[BANK0 ] unsigned char 
   693 ;;  convert1        1   48[BANK0 ] unsigned char 
   694 ;;  b               1   45[BANK0 ] unsigned char 
   695 ;;  mode            1   44[BANK0 ] unsigned char 
   696 ;;  a               1   43[BANK0 ] unsigned char 
   697 ;;  database        1   36[BANK0 ] unsigned char 
   698 ;; Return value:  Size  Location     Type
   699 ;;		None               void
   700 ;; Registers used:
   701 ;;		wreg, fsr0l, fsr0h, status,2, status,0, btemp+1, pclath, cstack
   702 ;; Tracked objects:
   703 ;;		On entry : 17F/0
   704 ;;		On exit  : 0/0
   705 ;;		Unchanged: 0/0
   706 ;; Data sizes:     COMMON   BANK0   BANK1   BANK3   BANK2
   707 ;;      Params:         0       0       0       0       0
   708 ;;      Locals:         0      41       0       0       0
   709 ;;      Temps:          0       5       0       0       0
   710 ;;      Totals:         0      46       0       0       0
   711 ;;Total ram usage:       46 bytes
   712 ;; Hardware stack levels required when called:    4
   713 ;; This function calls:
   714 ;;		_init
   715 ;;		_lcd_clr
   716 ;;		_lcd_goto
   717 ;;		_send_string
   718 ;;		_delay
   719 ;;		_send_dec
   720 ;; This function is called by:
   721 ;;		Startup code after reset
   722 ;; This function uses a non-reentrant model
   723 ;;
   724                           psect	maintext,global,class=CODE,delta=2,split=1
   725                           global __pmaintext
   726  039D                     __pmaintext:
   727                           psect	maintext
   728                           	file	"PR25.c"
   729                           	line	50
   730                           	global	__size_of_main
   731  0463                     	__size_of_main	equ	__end_of_main-_main
   732                           	
   733  039D                     _main:	
   734                           	opt	stack 4
   735                           ; Regs used in _main: [wreg-fsr0h+status,2+status,0+btemp+1+pclath+cstack]
   736                           	line	53
   737                           	
   738  039D                     l1642:	
   739                           ;PR25.c: 51: unsigned char i, repeat, a, b, database;
   740                           ;PR25.c: 52: unsigned char data[26];
   741                           ;PR25.c: 53: unsigned char convert1=0;
   742  039D  1283               	bcf	status, 5	;RP0=0, select bank0
   743  039E  1303               	bcf	status, 6	;RP1=0, select bank0
   744  039F  01D0               	clrf	(main@convert1)
   745                           	line	54
   746                           	
   747  03A0                     l1644:	
   748                           ;PR25.c: 54: unsigned int convert2=0;
   749  03A0  01CE               	clrf	(main@convert2)
   750  03A1  01CF               	clrf	(main@convert2+1)
   751                           	line	55
   752                           	
   753  03A2                     l1646:	
   754                           ;PR25.c: 55: unsigned char mode=0;
   755  03A2  01CC               	clrf	(main@mode)
   756                           	line	56
   757                           	
   758  03A3                     l1648:	
   759                           ;PR25.c: 56: unsigned char id1[2]={127,0};
   760  03A3  0858               	movf	(main@F1157+1),w
   761  03A4  01CA               	clrf	(main@id1+1)
   762  03A5  07CA               	addwf	(main@id1+1)
   763  03A6  0857               	movf	(main@F1157),w
   764  03A7  01C9               	clrf	(main@id1)
   765  03A8  07C9               	addwf	(main@id1)
   766                           
   767                           	line	57
   768                           	
   769  03A9                     l1650:	
   770                           ;PR25.c: 57: unsigned int id2[2]={22449,0};
   771  03A9  0856               	movf	(main@F1159+3),w
   772  03AA  00C8               	movwf	(main@id2+3)
   773  03AB  0855               	movf	(main@F1159+2),w
   774  03AC  00C7               	movwf	(main@id2+2)
   775  03AD  0854               	movf	(main@F1159+1),w
   776  03AE  00C6               	movwf	(main@id2+1)
   777  03AF  0853               	movf	(main@F1159),w
   778  03B0  00C5               	movwf	(main@id2)
   779                           
   780                           	line	59
   781                           	
   782  03B1                     l1652:	
   783                           ;PR25.c: 59: init();
   784  03B1  120A  158A  2756   	fcall	_init
              120A  118A         
   785                           	line	60
   786                           	
   787  03B6                     l1654:	
   788                           ;PR25.c: 60: lcd_clr();
   789  03B6  120A  158A  2658   	fcall	_lcd_clr
              120A  118A         
   790                           	line	61
   791                           	
   792  03BB                     l1656:	
   793                           ;PR25.c: 61: id1[1]=0;
   794  03BB  1283               	bcf	status, 5	;RP0=0, select bank0
   795  03BC  1303               	bcf	status, 6	;RP1=0, select bank0
   796  03BD  01CA               	clrf	0+(main@id1)+01h
   797                           	line	62
   798                           	
   799  03BE                     l1658:	
   800                           ;PR25.c: 62: id2[1]=0;
   801  03BE  01C7               	clrf	0+(main@id2)+02h
   802  03BF  01C8               	clrf	1+(main@id2)+02h
   803                           	line	63
   804                           	
   805  03C0                     l1660:	
   806                           ;PR25.c: 63: RC4=1;
   807  03C0  1607               	bsf	(60/8),(60)&7	;volatile
   808                           	line	64
   809                           	
   810  03C1                     l1662:	
   811                           ;PR25.c: 64: lcd_goto(0);
   812  03C1  3000               	movlw	(0)
   813  03C2  120A  158A  269E   	fcall	_lcd_goto
              120A  118A         
   814                           	line	65
   815                           	
   816  03C7                     l1664:	
   817                           ;PR25.c: 65: send_string (" RFID door");
   818  03C7  307E               	movlw	((STR_1-__stringbase))&0ffh
   819  03C8  120A  158A  26DC   	fcall	_send_string
              120A  118A         
   820                           	line	66
   821                           	
   822  03CD                     l1666:	
   823                           ;PR25.c: 66: lcd_goto(20);
   824  03CD  3014               	movlw	(014h)
   825  03CE  120A  158A  269E   	fcall	_lcd_goto
              120A  118A         
   826                           	line	67
   827                           	
   828  03D3                     l1668:	
   829                           ;PR25.c: 67: send_string (" security");
   830  03D3  3089               	movlw	((STR_2-__stringbase))&0ffh
   831  03D4  120A  158A  26DC   	fcall	_send_string
              120A  118A         
   832                           	line	69
   833                           	
   834  03D9                     l1670:	
   835                           ;PR25.c: 69: for(repeat=12; repeat>0; repeat--)
   836  03D9  300C               	movlw	(0Ch)
   837  03DA  1283               	bcf	status, 5	;RP0=0, select bank0
   838  03DB  1303               	bcf	status, 6	;RP1=0, select bank0
   839  03DC  00A5               	movwf	(??_main+0)+0
   840  03DD  0825               	movf	(??_main+0)+0,w
   841  03DE  00D1               	movwf	(main@repeat)
   842                           	
   843  03DF                     l1672:	
   844  03DF  08D1               	movf	(main@repeat),f
   845  03E0  1D03               	skipz
   846  03E1  2BE3               	goto	u1171
   847  03E2  2BE4               	goto	u1170
   848  03E3                     u1171:
   849  03E3  2BE6               	goto	l1676
   850  03E4                     u1170:
   851  03E4  2BFD               	goto	l51
   852                           	
   853  03E5                     l1674:	
   854  03E5  2BFD               	goto	l51
   855                           	line	70
   856                           	
   857  03E6                     l49:	
   858                           	line	71
   859                           	
   860  03E6                     l1676:	
   861                           ;PR25.c: 70: {
   862                           ;PR25.c: 71: delay(1000000);
   863  03E6  3000               	movlw	0
   864  03E7  00F3               	movwf	(?_delay+3)
   865  03E8  300F               	movlw	0Fh
   866  03E9  00F2               	movwf	(?_delay+2)
   867  03EA  3042               	movlw	042h
   868  03EB  00F1               	movwf	(?_delay+1)
   869  03EC  3040               	movlw	040h
   870  03ED  00F0               	movwf	(?_delay)
   871                           
   872  03EE  120A  158A  2702   	fcall	_delay
              120A  118A         
   873                           	line	69
   874                           	
   875  03F3                     l1678:	
   876  03F3  3001               	movlw	low(01h)
   877  03F4  1283               	bcf	status, 5	;RP0=0, select bank0
   878  03F5  1303               	bcf	status, 6	;RP1=0, select bank0
   879  03F6  02D1               	subwf	(main@repeat),f
   880                           	
   881  03F7                     l1680:	
   882  03F7  08D1               	movf	(main@repeat),f
   883  03F8  1D03               	skipz
   884  03F9  2BFB               	goto	u1181
   885  03FA  2BFC               	goto	u1180
   886  03FB                     u1181:
   887  03FB  2BE6               	goto	l1676
   888  03FC                     u1180:
   889  03FC  2BFD               	goto	l51
   890                           	
   891  03FD                     l50:	
   892                           	line	74
   893                           ;PR25.c: 72: }
   894                           ;PR25.c: 74: while(1)
   895                           	
   896  03FD                     l51:	
   897                           	line	76
   898                           ;PR25.c: 75: {
   899                           ;PR25.c: 76: convert1=0;
   900  03FD  01D0               	clrf	(main@convert1)
   901                           	line	77
   902                           	
   903  03FE                     l1682:	
   904                           ;PR25.c: 77: convert2=0;
   905  03FE  01CE               	clrf	(main@convert2)
   906  03FF  01CF               	clrf	(main@convert2+1)
   907                           	line	79
   908                           	
   909  0400                     l1684:	
   910                           ;PR25.c: 79: lcd_clr();
   911  0400  120A  158A  2658   	fcall	_lcd_clr
              120A  118A         
   912                           	line	80
   913                           	
   914  0405                     l1686:	
   915                           ;PR25.c: 80: lcd_goto(0);
   916  0405  3000               	movlw	(0)
   917  0406  120A  158A  269E   	fcall	_lcd_goto
              120A  118A         
   918                           	line	81
   919                           	
   920  040B                     l1688:	
   921                           ;PR25.c: 81: send_string ("Place your tag");
   922  040B  3035               	movlw	((STR_3-__stringbase))&0ffh
   923  040C  120A  158A  26DC   	fcall	_send_string
              120A  118A         
   924                           	line	82
   925                           	
   926  0411                     l1690:	
   927                           ;PR25.c: 82: lcd_goto(20);
   928  0411  3014               	movlw	(014h)
   929  0412  120A  158A  269E   	fcall	_lcd_goto
              120A  118A         
   930                           	line	83
   931                           	
   932  0417                     l1692:	
   933                           ;PR25.c: 83: send_string ("on the reader");
   934  0417  3070               	movlw	((STR_4-__stringbase))&0ffh
   935  0418  120A  158A  26DC   	fcall	_send_string
              120A  118A         
   936                           	line	85
   937                           ;PR25.c: 85: while(mode==0)
   938  041D  2C35               	goto	l52
   939                           	
   940  041E                     l53:	
   941                           	line	87
   942                           ;PR25.c: 86: {
   943                           ;PR25.c: 87: if((RC1==0)||(RC2==0)) mode=1;
   944  041E  1C87               	btfss	(57/8),(57)&7	;volatile
   945  041F  2C21               	goto	u1191
   946  0420  2C22               	goto	u1190
   947  0421                     u1191:
   948  0421  2C27               	goto	l1696
   949  0422                     u1190:
   950                           	
   951  0422                     l1694:	
   952  0422  1907               	btfsc	(58/8),(58)&7	;volatile
   953  0423  2C25               	goto	u1201
   954  0424  2C26               	goto	u1200
   955  0425                     u1201:
   956  0425  2C2B               	goto	l54
   957  0426                     u1200:
   958  0426  2C27               	goto	l1696
   959                           	
   960  0427                     l56:	
   961                           	
   962  0427                     l1696:	
   963  0427  01CC               	clrf	(main@mode)
   964  0428  1403               	bsf	status,0
   965  0429  0DCC               	rlf	(main@mode),f
   966  042A  2C35               	goto	l52
   967                           	line	88
   968                           	
   969  042B                     l54:	
   970                           ;PR25.c: 88: else if(RA4==0) mode=2;
   971  042B  1A05               	btfsc	(44/8),(44)&7	;volatile
   972  042C  2C2E               	goto	u1211
   973  042D  2C2F               	goto	u1210
   974  042E                     u1211:
   975  042E  2C35               	goto	l52
   976  042F                     u1210:
   977                           	
   978  042F                     l1698:	
   979  042F  3002               	movlw	(02h)
   980  0430  00A5               	movwf	(??_main+0)+0
   981  0431  0825               	movf	(??_main+0)+0,w
   982  0432  00CC               	movwf	(main@mode)
   983  0433  2C35               	goto	l52
   984                           	
   985  0434                     l58:	
   986  0434  2C35               	goto	l52
   987                           	line	89
   988                           	
   989  0435                     l57:	
   990                           	
   991  0435                     l52:	
   992                           	line	85
   993  0435  1283               	bcf	status, 5	;RP0=0, select bank0
   994  0436  1303               	bcf	status, 6	;RP1=0, select bank0
   995  0437  084C               	movf	(main@mode),w
   996  0438  1D03               	skipz
   997  0439  2C3B               	goto	u1220
   998  043A  2C1E               	goto	l53
   999  043B                     u1220:
  1000  043B  2D51               	goto	l1770
  1001                           	
  1002  043C                     l59:	
  1003                           	line	92
  1004                           ;PR25.c: 89: }
  1005                           ;PR25.c: 92: while(mode==1)
  1006  043C  2D51               	goto	l1770
  1007                           	
  1008  043D                     l61:	
  1009                           	line	94
  1010                           ;PR25.c: 93: {
  1011                           ;PR25.c: 94: if((RC1==0)&&(RC2==1))
  1012  043D  1887               	btfsc	(57/8),(57)&7	;volatile
  1013  043E  2C40               	goto	u1231
  1014  043F  2C41               	goto	u1230
  1015  0440                     u1231:
  1016  0440  2C56               	goto	l62
  1017  0441                     u1230:
  1018                           	
  1019  0441                     l1700:	
  1020  0441  1D07               	btfss	(58/8),(58)&7	;volatile
  1021  0442  2C44               	goto	u1241
  1022  0443  2C45               	goto	u1240
  1023  0444                     u1241:
  1024  0444  2C56               	goto	l62
  1025  0445                     u1240:
  1026                           	line	96
  1027                           	
  1028  0445                     l1702:	
  1029                           ;PR25.c: 95: {
  1030                           ;PR25.c: 96: data[i]=0;
  1031  0445  0852               	movf	(main@i),w
  1032  0446  3E2A               	addlw	main@data&0ffh
  1033  0447  0084               	movwf	fsr0
  1034  0448  1383               	bcf	status, 7	;select IRP bank0
  1035  0449  0180               	clrf	indf
  1036                           	line	97
  1037                           ;PR25.c: 97: while((RC1==0)&&(RC2==1));
  1038  044A  2C4B               	goto	l63
  1039                           	
  1040  044B                     l64:	
  1041                           	
  1042  044B                     l63:	
  1043  044B  1887               	btfsc	(57/8),(57)&7	;volatile
  1044  044C  2C4E               	goto	u1251
  1045  044D  2C4F               	goto	u1250
  1046  044E                     u1251:
  1047  044E  2C72               	goto	l1712
  1048  044F                     u1250:
  1049                           	
  1050  044F                     l1704:	
  1051  044F  1907               	btfsc	(58/8),(58)&7	;volatile
  1052  0450  2C52               	goto	u1261
  1053  0451  2C53               	goto	u1260
  1054  0452                     u1261:
  1055  0452  2C4B               	goto	l63
  1056  0453                     u1260:
  1057  0453  2C72               	goto	l1712
  1058                           	
  1059  0454                     l66:	
  1060  0454  2C72               	goto	l1712
  1061                           	
  1062  0455                     l67:	
  1063                           	line	98
  1064                           ;PR25.c: 98: }
  1065  0455  2C72               	goto	l1712
  1066                           	line	99
  1067                           	
  1068  0456                     l62:	
  1069                           ;PR25.c: 99: else if ((RC1==1)&&(RC2==0))
  1070  0456  1C87               	btfss	(57/8),(57)&7	;volatile
  1071  0457  2C59               	goto	u1271
  1072  0458  2C5A               	goto	u1270
  1073  0459                     u1271:
  1074  0459  2C72               	goto	l1712
  1075  045A                     u1270:
  1076                           	
  1077  045A                     l1706:	
  1078  045A  1907               	btfsc	(58/8),(58)&7	;volatile
  1079  045B  2C5D               	goto	u1281
  1080  045C  2C5E               	goto	u1280
  1081  045D                     u1281:
  1082  045D  2C72               	goto	l1712
  1083  045E                     u1280:
  1084                           	line	101
  1085                           	
  1086  045E                     l1708:	
  1087                           ;PR25.c: 100: {
  1088                           ;PR25.c: 101: data[i]=1;
  1089  045E  0852               	movf	(main@i),w
  1090  045F  3E2A               	addlw	main@data&0ffh
  1091  0460  0084               	movwf	fsr0
  1092  0461  1383               	bcf	status, 7	;select IRP bank0
  1093  0462  0180               	clrf	indf
  1094  0463  1403               	bsf	status,0
  1095  0464  0D80               	rlf	indf,f
  1096                           	line	102
  1097                           ;PR25.c: 102: while((RC1==1)&&(RC2==0));
  1098  0465  2C66               	goto	l70
  1099                           	
  1100  0466                     l71:	
  1101                           	
  1102  0466                     l70:	
  1103  0466  1C87               	btfss	(57/8),(57)&7	;volatile
  1104  0467  2C69               	goto	u1291
  1105  0468  2C6A               	goto	u1290
  1106  0469                     u1291:
  1107  0469  2C72               	goto	l1712
  1108  046A                     u1290:
  1109                           	
  1110  046A                     l1710:	
  1111  046A  1D07               	btfss	(58/8),(58)&7	;volatile
  1112  046B  2C6D               	goto	u1301
  1113  046C  2C6E               	goto	u1300
  1114  046D                     u1301:
  1115  046D  2C66               	goto	l70
  1116  046E                     u1300:
  1117  046E  2C72               	goto	l1712
  1118                           	
  1119  046F                     l73:	
  1120  046F  2C72               	goto	l1712
  1121                           	
  1122  0470                     l74:	
  1123  0470  2C72               	goto	l1712
  1124                           	line	103
  1125                           	
  1126  0471                     l69:	
  1127  0471  2C72               	goto	l1712
  1128                           	line	104
  1129                           	
  1130  0472                     l68:	
  1131                           	
  1132  0472                     l1712:	
  1133                           ;PR25.c: 103: }
  1134                           ;PR25.c: 104: i+=1;
  1135  0472  3001               	movlw	(01h)
  1136  0473  00A5               	movwf	(??_main+0)+0
  1137  0474  0825               	movf	(??_main+0)+0,w
  1138  0475  07D2               	addwf	(main@i),f
  1139                           	line	106
  1140                           ;PR25.c: 106: while(i<26)
  1141  0476  2CBB               	goto	l1730
  1142                           	
  1143  0477                     l76:	
  1144                           	line	108
  1145                           ;PR25.c: 107: {
  1146                           ;PR25.c: 108: while((RC1==1)&&(RC2==1));
  1147  0477  2C78               	goto	l77
  1148                           	
  1149  0478                     l78:	
  1150                           	
  1151  0478                     l77:	
  1152  0478  1C87               	btfss	(57/8),(57)&7	;volatile
  1153  0479  2C7B               	goto	u1311
  1154  047A  2C7C               	goto	u1310
  1155  047B                     u1311:
  1156  047B  2C81               	goto	l81
  1157  047C                     u1310:
  1158                           	
  1159  047C                     l1714:	
  1160  047C  1907               	btfsc	(58/8),(58)&7	;volatile
  1161  047D  2C7F               	goto	u1321
  1162  047E  2C80               	goto	u1320
  1163  047F                     u1321:
  1164  047F  2C78               	goto	l77
  1165  0480                     u1320:
  1166  0480  2C81               	goto	l81
  1167                           	
  1168  0481                     l80:	
  1169                           	
  1170  0481                     l81:	
  1171                           	line	109
  1172                           ;PR25.c: 109: if((RC1==0)&&(RC2==1))
  1173  0481  1887               	btfsc	(57/8),(57)&7	;volatile
  1174  0482  2C84               	goto	u1331
  1175  0483  2C85               	goto	u1330
  1176  0484                     u1331:
  1177  0484  2C9A               	goto	l82
  1178  0485                     u1330:
  1179                           	
  1180  0485                     l1716:	
  1181  0485  1D07               	btfss	(58/8),(58)&7	;volatile
  1182  0486  2C88               	goto	u1341
  1183  0487  2C89               	goto	u1340
  1184  0488                     u1341:
  1185  0488  2C9A               	goto	l82
  1186  0489                     u1340:
  1187                           	line	111
  1188                           	
  1189  0489                     l1718:	
  1190                           ;PR25.c: 110: {
  1191                           ;PR25.c: 111: data[i]=0;
  1192  0489  0852               	movf	(main@i),w
  1193  048A  3E2A               	addlw	main@data&0ffh
  1194  048B  0084               	movwf	fsr0
  1195  048C  1383               	bcf	status, 7	;select IRP bank0
  1196  048D  0180               	clrf	indf
  1197                           	line	112
  1198                           ;PR25.c: 112: while((RC1==0)&&(RC2==1));
  1199  048E  2C8F               	goto	l83
  1200                           	
  1201  048F                     l84:	
  1202                           	
  1203  048F                     l83:	
  1204  048F  1887               	btfsc	(57/8),(57)&7	;volatile
  1205  0490  2C92               	goto	u1351
  1206  0491  2C93               	goto	u1350
  1207  0492                     u1351:
  1208  0492  2CB6               	goto	l1728
  1209  0493                     u1350:
  1210                           	
  1211  0493                     l1720:	
  1212  0493  1907               	btfsc	(58/8),(58)&7	;volatile
  1213  0494  2C96               	goto	u1361
  1214  0495  2C97               	goto	u1360
  1215  0496                     u1361:
  1216  0496  2C8F               	goto	l83
  1217  0497                     u1360:
  1218  0497  2CB6               	goto	l1728
  1219                           	
  1220  0498                     l86:	
  1221  0498  2CB6               	goto	l1728
  1222                           	
  1223  0499                     l87:	
  1224                           	line	113
  1225                           ;PR25.c: 113: }
  1226  0499  2CB6               	goto	l1728
  1227                           	line	114
  1228                           	
  1229  049A                     l82:	
  1230                           ;PR25.c: 114: else if ((RC1==1)&&(RC2==0))
  1231  049A  1C87               	btfss	(57/8),(57)&7	;volatile
  1232  049B  2C9D               	goto	u1371
  1233  049C  2C9E               	goto	u1370
  1234  049D                     u1371:
  1235  049D  2CB6               	goto	l1728
  1236  049E                     u1370:
  1237                           	
  1238  049E                     l1722:	
  1239  049E  1907               	btfsc	(58/8),(58)&7	;volatile
  1240  049F  2CA1               	goto	u1381
  1241  04A0  2CA2               	goto	u1380
  1242  04A1                     u1381:
  1243  04A1  2CB6               	goto	l1728
  1244  04A2                     u1380:
  1245                           	line	116
  1246                           	
  1247  04A2                     l1724:	
  1248                           ;PR25.c: 115: {
  1249                           ;PR25.c: 116: data[i]=1;
  1250  04A2  0852               	movf	(main@i),w
  1251  04A3  3E2A               	addlw	main@data&0ffh
  1252  04A4  0084               	movwf	fsr0
  1253  04A5  1383               	bcf	status, 7	;select IRP bank0
  1254  04A6  0180               	clrf	indf
  1255  04A7  1403               	bsf	status,0
  1256  04A8  0D80               	rlf	indf,f
  1257                           	line	117
  1258                           ;PR25.c: 117: while((RC1==1)&&(RC2==0));
  1259  04A9  2CAA               	goto	l90
  1260                           	
  1261  04AA                     l91:	
  1262                           	
  1263  04AA                     l90:	
  1264  04AA  1C87               	btfss	(57/8),(57)&7	;volatile
  1265  04AB  2CAD               	goto	u1391
  1266  04AC  2CAE               	goto	u1390
  1267  04AD                     u1391:
  1268  04AD  2CB6               	goto	l1728
  1269  04AE                     u1390:
  1270                           	
  1271  04AE                     l1726:	
  1272  04AE  1D07               	btfss	(58/8),(58)&7	;volatile
  1273  04AF  2CB1               	goto	u1401
  1274  04B0  2CB2               	goto	u1400
  1275  04B1                     u1401:
  1276  04B1  2CAA               	goto	l90
  1277  04B2                     u1400:
  1278  04B2  2CB6               	goto	l1728
  1279                           	
  1280  04B3                     l93:	
  1281  04B3  2CB6               	goto	l1728
  1282                           	
  1283  04B4                     l94:	
  1284  04B4  2CB6               	goto	l1728
  1285                           	line	118
  1286                           	
  1287  04B5                     l89:	
  1288  04B5  2CB6               	goto	l1728
  1289                           	line	119
  1290                           	
  1291  04B6                     l88:	
  1292                           	
  1293  04B6                     l1728:	
  1294                           ;PR25.c: 118: }
  1295                           ;PR25.c: 119: i+=1;
  1296  04B6  3001               	movlw	(01h)
  1297  04B7  00A5               	movwf	(??_main+0)+0
  1298  04B8  0825               	movf	(??_main+0)+0,w
  1299  04B9  07D2               	addwf	(main@i),f
  1300  04BA  2CBB               	goto	l1730
  1301                           	line	120
  1302                           	
  1303  04BB                     l75:	
  1304                           	line	106
  1305                           	
  1306  04BB                     l1730:	
  1307  04BB  301A               	movlw	(01Ah)
  1308  04BC  0252               	subwf	(main@i),w
  1309  04BD  1C03               	skipc
  1310  04BE  2CC0               	goto	u1411
  1311  04BF  2CC1               	goto	u1410
  1312  04C0                     u1411:
  1313  04C0  2C78               	goto	l77
  1314  04C1                     u1410:
  1315                           	
  1316  04C1                     l95:	
  1317                           	line	122
  1318                           ;PR25.c: 120: }
  1319                           ;PR25.c: 122: mode=0;
  1320  04C1  01CC               	clrf	(main@mode)
  1321                           	line	124
  1322                           ;PR25.c: 124: i=0;
  1323  04C2  01D2               	clrf	(main@i)
  1324                           	line	125
  1325                           	
  1326  04C3                     l1732:	
  1327                           ;PR25.c: 125: lcd_clr();
  1328  04C3  120A  158A  2658   	fcall	_lcd_clr
              120A  118A         
  1329                           	line	127
  1330                           	
  1331  04C8                     l1734:	
  1332                           ;PR25.c: 127: for(i=0;i<8;i++)
  1333  04C8  1283               	bcf	status, 5	;RP0=0, select bank0
  1334  04C9  1303               	bcf	status, 6	;RP1=0, select bank0
  1335  04CA  01D2               	clrf	(main@i)
  1336                           	
  1337  04CB                     l1736:	
  1338  04CB  3008               	movlw	(08h)
  1339  04CC  0252               	subwf	(main@i),w
  1340  04CD  1C03               	skipc
  1341  04CE  2CD0               	goto	u1421
  1342  04CF  2CD1               	goto	u1420
  1343  04D0                     u1421:
  1344  04D0  2CD3               	goto	l1740
  1345  04D1                     u1420:
  1346  04D1  2CE9               	goto	l97
  1347                           	
  1348  04D2                     l1738:	
  1349  04D2  2CE9               	goto	l97
  1350                           	line	128
  1351                           	
  1352  04D3                     l96:	
  1353                           	line	129
  1354                           	
  1355  04D3                     l1740:	
  1356                           ;PR25.c: 128: {
  1357                           ;PR25.c: 129: convert1=(convert1<<1)|data[i+1];
  1358  04D3  0852               	movf	(main@i),w
  1359  04D4  3E01               	addlw	01h
  1360  04D5  3E2A               	addlw	main@data&0ffh
  1361  04D6  0084               	movwf	fsr0
  1362  04D7  0850               	movf	(main@convert1),w
  1363  04D8  00A5               	movwf	(??_main+0)+0
  1364  04D9  0725               	addwf	(??_main+0)+0,w
  1365  04DA  1383               	bcf	status, 7	;select IRP bank0
  1366  04DB  0400               	iorwf	indf,w
  1367  04DC  00A6               	movwf	(??_main+1)+0
  1368  04DD  0826               	movf	(??_main+1)+0,w
  1369  04DE  00D0               	movwf	(main@convert1)
  1370                           	line	127
  1371                           	
  1372  04DF                     l1742:	
  1373  04DF  3001               	movlw	(01h)
  1374  04E0  00A5               	movwf	(??_main+0)+0
  1375  04E1  0825               	movf	(??_main+0)+0,w
  1376  04E2  07D2               	addwf	(main@i),f
  1377                           	
  1378  04E3                     l1744:	
  1379  04E3  3008               	movlw	(08h)
  1380  04E4  0252               	subwf	(main@i),w
  1381  04E5  1C03               	skipc
  1382  04E6  2CE8               	goto	u1431
  1383  04E7  2CE9               	goto	u1430
  1384  04E8                     u1431:
  1385  04E8  2CD3               	goto	l1740
  1386  04E9                     u1430:
  1387                           	
  1388  04E9                     l97:	
  1389                           	line	131
  1390                           ;PR25.c: 130: }
  1391                           ;PR25.c: 131: for(i=0;i<16;i++)
  1392  04E9  01D2               	clrf	(main@i)
  1393                           	
  1394  04EA                     l1746:	
  1395  04EA  3010               	movlw	(010h)
  1396  04EB  0252               	subwf	(main@i),w
  1397  04EC  1C03               	skipc
  1398  04ED  2CEF               	goto	u1441
  1399  04EE  2CF0               	goto	u1440
  1400  04EF                     u1441:
  1401  04EF  2CF2               	goto	l1750
  1402  04F0                     u1440:
  1403  04F0  2D15               	goto	l99
  1404                           	
  1405  04F1                     l1748:	
  1406  04F1  2D15               	goto	l99
  1407                           	line	132
  1408                           	
  1409  04F2                     l98:	
  1410                           	line	133
  1411                           	
  1412  04F2                     l1750:	
  1413                           ;PR25.c: 132: {
  1414                           ;PR25.c: 133: convert2=(convert2<<1)|data[i+9];
  1415  04F2  0852               	movf	(main@i),w
  1416  04F3  3E09               	addlw	09h
  1417  04F4  3E2A               	addlw	main@data&0ffh
  1418  04F5  0084               	movwf	fsr0
  1419  04F6  1383               	bcf	status, 7	;select IRP bank0
  1420  04F7  0800               	movf	indf,w
  1421  04F8  00A5               	movwf	(??_main+0)+0+0
  1422  04F9  01A6               	clrf	(??_main+0)+0+1
  1423  04FA  084F               	movf	(main@convert2+1),w
  1424  04FB  00A8               	movwf	(??_main+2)+0+1
  1425  04FC  084E               	movf	(main@convert2),w
  1426  04FD  00A7               	movwf	(??_main+2)+0
  1427  04FE  3001               	movlw	01h
  1428  04FF  00FF               	movwf	btemp+1
  1429  0500                     u1455:
  1430  0500  1003               	clrc
  1431  0501  0DA7               	rlf	(??_main+2)+0,f
  1432  0502  0DA8               	rlf	(??_main+2)+1,f
  1433  0503  0BFF               	decfsz	btemp+1,f
  1434  0504  2D00               	goto	u1455
  1435  0505  0825               	movf	0+(??_main+0)+0,w
  1436  0506  0427               	iorwf	0+(??_main+2)+0,w
  1437  0507  00CE               	movwf	(main@convert2)
  1438  0508  0826               	movf	1+(??_main+0)+0,w
  1439  0509  0428               	iorwf	1+(??_main+2)+0,w
  1440  050A  00CF               	movwf	1+(main@convert2)
  1441                           	line	131
  1442                           	
  1443  050B                     l1752:	
  1444  050B  3001               	movlw	(01h)
  1445  050C  00A5               	movwf	(??_main+0)+0
  1446  050D  0825               	movf	(??_main+0)+0,w
  1447  050E  07D2               	addwf	(main@i),f
  1448                           	
  1449  050F                     l1754:	
  1450  050F  3010               	movlw	(010h)
  1451  0510  0252               	subwf	(main@i),w
  1452  0511  1C03               	skipc
  1453  0512  2D14               	goto	u1461
  1454  0513  2D15               	goto	u1460
  1455  0514                     u1461:
  1456  0514  2CF2               	goto	l1750
  1457  0515                     u1460:
  1458                           	
  1459  0515                     l99:	
  1460                           	line	136
  1461                           ;PR25.c: 134: }
  1462                           ;PR25.c: 136: for(b=0;b<2;b++)
  1463  0515  01CD               	clrf	(main@b)
  1464                           	
  1465  0516                     l1756:	
  1466  0516  3002               	movlw	(02h)
  1467  0517  024D               	subwf	(main@b),w
  1468  0518  1C03               	skipc
  1469  0519  2D1B               	goto	u1471
  1470  051A  2D1C               	goto	u1470
  1471  051B                     u1471:
  1472  051B  2D1E               	goto	l1760
  1473  051C                     u1470:
  1474  051C  2D4B               	goto	l1768
  1475                           	
  1476  051D                     l1758:	
  1477  051D  2D4B               	goto	l1768
  1478                           	line	137
  1479                           	
  1480  051E                     l100:	
  1481                           	line	138
  1482                           	
  1483  051E                     l1760:	
  1484                           ;PR25.c: 137: {
  1485                           ;PR25.c: 138: if((convert1==id1[b])&&(convert2==id2[b])) database=1;
  1486  051E  084D               	movf	(main@b),w
  1487  051F  3E49               	addlw	main@id1&0ffh
  1488  0520  0084               	movwf	fsr0
  1489  0521  1383               	bcf	status, 7	;select IRP bank0
  1490  0522  0800               	movf	indf,w
  1491  0523  0650               	xorwf	(main@convert1),w
  1492  0524  1D03               	skipz
  1493  0525  2D27               	goto	u1481
  1494  0526  2D28               	goto	u1480
  1495  0527                     u1481:
  1496  0527  2D40               	goto	l1766
  1497  0528                     u1480:
  1498                           	
  1499  0528                     l1762:	
  1500  0528  084D               	movf	(main@b),w
  1501  0529  00A5               	movwf	(??_main+0)+0
  1502  052A  0725               	addwf	(??_main+0)+0,w
  1503  052B  3E45               	addlw	main@id2&0ffh
  1504  052C  0084               	movwf	fsr0
  1505  052D  0800               	movf	indf,w
  1506  052E  00A6               	movwf	(??_main+1)+0+0
  1507  052F  0A84               	incf	fsr0,f
  1508  0530  0800               	movf	indf,w
  1509  0531  00A7               	movwf	(??_main+1)+0+1
  1510  0532  084F               	movf	(main@convert2+1),w
  1511  0533  0627               	xorwf	1+(??_main+1)+0,w
  1512  0534  1D03               	skipz
  1513  0535  2D38               	goto	u1495
  1514  0536  084E               	movf	(main@convert2),w
  1515  0537  0626               	xorwf	0+(??_main+1)+0,w
  1516  0538                     u1495:
  1517                           
  1518  0538  1D03               	skipz
  1519  0539  2D3B               	goto	u1491
  1520  053A  2D3C               	goto	u1490
  1521  053B                     u1491:
  1522  053B  2D40               	goto	l1766
  1523  053C                     u1490:
  1524                           	
  1525  053C                     l1764:	
  1526  053C  01C4               	clrf	(main@database)
  1527  053D  1403               	bsf	status,0
  1528  053E  0DC4               	rlf	(main@database),f
  1529  053F  2D40               	goto	l1766
  1530                           	
  1531  0540                     l102:	
  1532                           	line	136
  1533                           	
  1534  0540                     l1766:	
  1535  0540  3001               	movlw	(01h)
  1536  0541  00A5               	movwf	(??_main+0)+0
  1537  0542  0825               	movf	(??_main+0)+0,w
  1538  0543  07CD               	addwf	(main@b),f
  1539  0544  3002               	movlw	(02h)
  1540  0545  024D               	subwf	(main@b),w
  1541  0546  1C03               	skipc
  1542  0547  2D49               	goto	u1501
  1543  0548  2D4A               	goto	u1500
  1544  0549                     u1501:
  1545  0549  2D1E               	goto	l1760
  1546  054A                     u1500:
  1547  054A  2D4B               	goto	l1768
  1548                           	
  1549  054B                     l101:	
  1550                           	line	140
  1551                           	
  1552  054B                     l1768:	
  1553                           ;PR25.c: 139: }
  1554                           ;PR25.c: 140: lcd_clr();
  1555  054B  120A  158A  2658   	fcall	_lcd_clr
              120A  118A         
  1556  0550  2D51               	goto	l1770
  1557                           	line	141
  1558                           	
  1559  0551                     l60:	
  1560                           	line	92
  1561                           	
  1562  0551                     l1770:	
  1563  0551  1283               	bcf	status, 5	;RP0=0, select bank0
  1564  0552  1303               	bcf	status, 6	;RP1=0, select bank0
  1565  0553  084C               	movf	(main@mode),w
  1566  0554  3A01               	xorlw	01h
  1567  0555  1903               	skipnz
  1568  0556  2D58               	goto	u1511
  1569  0557  2D59               	goto	u1510
  1570  0558                     u1511:
  1571  0558  2C3D               	goto	l61
  1572  0559                     u1510:
  1573  0559  2E30               	goto	l1828
  1574                           	
  1575  055A                     l103:	
  1576                           	line	144
  1577                           ;PR25.c: 141: }
  1578                           ;PR25.c: 144: while(mode==2)
  1579  055A  2E30               	goto	l1828
  1580                           	
  1581  055B                     l105:	
  1582                           	line	146
  1583                           	
  1584  055B                     l1772:	
  1585                           ;PR25.c: 145: {
  1586                           ;PR25.c: 146: lcd_clr();
  1587  055B  120A  158A  2658   	fcall	_lcd_clr
              120A  118A         
  1588                           	line	147
  1589                           ;PR25.c: 147: lcd_goto(0);
  1590  0560  3000               	movlw	(0)
  1591  0561  120A  158A  269E   	fcall	_lcd_goto
              120A  118A         
  1592                           	line	148
  1593                           	
  1594  0566                     l1774:	
  1595                           ;PR25.c: 148: send_string ("    Save mode   ");
  1596  0566  3013               	movlw	((STR_5-__stringbase))&0ffh
  1597  0567  120A  158A  26DC   	fcall	_send_string
              120A  118A         
  1598                           	line	149
  1599                           	
  1600  056C                     l1776:	
  1601                           ;PR25.c: 149: lcd_goto(20);
  1602  056C  3014               	movlw	(014h)
  1603  056D  120A  158A  269E   	fcall	_lcd_goto
              120A  118A         
  1604                           	line	150
  1605                           ;PR25.c: 150: send_string (" Place your tag");
  1606  0572  3034               	movlw	((STR_6-__stringbase))&0ffh
  1607  0573  120A  158A  26DC   	fcall	_send_string
              120A  118A         
  1608                           	line	152
  1609                           ;PR25.c: 152: while(i<26)
  1610  0578  2DBF               	goto	l1794
  1611                           	
  1612  0579                     l107:	
  1613                           	line	154
  1614                           ;PR25.c: 153: {
  1615                           ;PR25.c: 154: while((RC1==1)&&(RC2==1));
  1616  0579  2D7A               	goto	l108
  1617                           	
  1618  057A                     l109:	
  1619                           	
  1620  057A                     l108:	
  1621  057A  1283               	bcf	status, 5	;RP0=0, select bank0
  1622  057B  1303               	bcf	status, 6	;RP1=0, select bank0
  1623  057C  1C87               	btfss	(57/8),(57)&7	;volatile
  1624  057D  2D7F               	goto	u1521
  1625  057E  2D80               	goto	u1520
  1626  057F                     u1521:
  1627  057F  2D85               	goto	l112
  1628  0580                     u1520:
  1629                           	
  1630  0580                     l1778:	
  1631  0580  1907               	btfsc	(58/8),(58)&7	;volatile
  1632  0581  2D83               	goto	u1531
  1633  0582  2D84               	goto	u1530
  1634  0583                     u1531:
  1635  0583  2D7A               	goto	l108
  1636  0584                     u1530:
  1637  0584  2D85               	goto	l112
  1638                           	
  1639  0585                     l111:	
  1640                           	
  1641  0585                     l112:	
  1642                           	line	155
  1643                           ;PR25.c: 155: if((RC1==0)&&(RC2==1))
  1644  0585  1887               	btfsc	(57/8),(57)&7	;volatile
  1645  0586  2D88               	goto	u1541
  1646  0587  2D89               	goto	u1540
  1647  0588                     u1541:
  1648  0588  2D9E               	goto	l113
  1649  0589                     u1540:
  1650                           	
  1651  0589                     l1780:	
  1652  0589  1D07               	btfss	(58/8),(58)&7	;volatile
  1653  058A  2D8C               	goto	u1551
  1654  058B  2D8D               	goto	u1550
  1655  058C                     u1551:
  1656  058C  2D9E               	goto	l113
  1657  058D                     u1550:
  1658                           	line	157
  1659                           	
  1660  058D                     l1782:	
  1661                           ;PR25.c: 156: {
  1662                           ;PR25.c: 157: data[i]=0;
  1663  058D  0852               	movf	(main@i),w
  1664  058E  3E2A               	addlw	main@data&0ffh
  1665  058F  0084               	movwf	fsr0
  1666  0590  1383               	bcf	status, 7	;select IRP bank0
  1667  0591  0180               	clrf	indf
  1668                           	line	158
  1669                           ;PR25.c: 158: while((RC1==0)&&(RC2==1));
  1670  0592  2D93               	goto	l114
  1671                           	
  1672  0593                     l115:	
  1673                           	
  1674  0593                     l114:	
  1675  0593  1887               	btfsc	(57/8),(57)&7	;volatile
  1676  0594  2D96               	goto	u1561
  1677  0595  2D97               	goto	u1560
  1678  0596                     u1561:
  1679  0596  2DBA               	goto	l1792
  1680  0597                     u1560:
  1681                           	
  1682  0597                     l1784:	
  1683  0597  1907               	btfsc	(58/8),(58)&7	;volatile
  1684  0598  2D9A               	goto	u1571
  1685  0599  2D9B               	goto	u1570
  1686  059A                     u1571:
  1687  059A  2D93               	goto	l114
  1688  059B                     u1570:
  1689  059B  2DBA               	goto	l1792
  1690                           	
  1691  059C                     l117:	
  1692  059C  2DBA               	goto	l1792
  1693                           	
  1694  059D                     l118:	
  1695                           	line	159
  1696                           ;PR25.c: 159: }
  1697  059D  2DBA               	goto	l1792
  1698                           	line	160
  1699                           	
  1700  059E                     l113:	
  1701                           ;PR25.c: 160: else if ((RC1==1)&&(RC2==0))
  1702  059E  1C87               	btfss	(57/8),(57)&7	;volatile
  1703  059F  2DA1               	goto	u1581
  1704  05A0  2DA2               	goto	u1580
  1705  05A1                     u1581:
  1706  05A1  2DBA               	goto	l1792
  1707  05A2                     u1580:
  1708                           	
  1709  05A2                     l1786:	
  1710  05A2  1907               	btfsc	(58/8),(58)&7	;volatile
  1711  05A3  2DA5               	goto	u1591
  1712  05A4  2DA6               	goto	u1590
  1713  05A5                     u1591:
  1714  05A5  2DBA               	goto	l1792
  1715  05A6                     u1590:
  1716                           	line	162
  1717                           	
  1718  05A6                     l1788:	
  1719                           ;PR25.c: 161: {
  1720                           ;PR25.c: 162: data[i]=1;
  1721  05A6  0852               	movf	(main@i),w
  1722  05A7  3E2A               	addlw	main@data&0ffh
  1723  05A8  0084               	movwf	fsr0
  1724  05A9  1383               	bcf	status, 7	;select IRP bank0
  1725  05AA  0180               	clrf	indf
  1726  05AB  1403               	bsf	status,0
  1727  05AC  0D80               	rlf	indf,f
  1728                           	line	163
  1729                           ;PR25.c: 163: while((RC1==1)&&(RC2==0));
  1730  05AD  2DAE               	goto	l121
  1731                           	
  1732  05AE                     l122:	
  1733                           	
  1734  05AE                     l121:	
  1735  05AE  1C87               	btfss	(57/8),(57)&7	;volatile
  1736  05AF  2DB1               	goto	u1601
  1737  05B0  2DB2               	goto	u1600
  1738  05B1                     u1601:
  1739  05B1  2DBA               	goto	l1792
  1740  05B2                     u1600:
  1741                           	
  1742  05B2                     l1790:	
  1743  05B2  1D07               	btfss	(58/8),(58)&7	;volatile
  1744  05B3  2DB5               	goto	u1611
  1745  05B4  2DB6               	goto	u1610
  1746  05B5                     u1611:
  1747  05B5  2DAE               	goto	l121
  1748  05B6                     u1610:
  1749  05B6  2DBA               	goto	l1792
  1750                           	
  1751  05B7                     l124:	
  1752  05B7  2DBA               	goto	l1792
  1753                           	
  1754  05B8                     l125:	
  1755  05B8  2DBA               	goto	l1792
  1756                           	line	164
  1757                           	
  1758  05B9                     l120:	
  1759  05B9  2DBA               	goto	l1792
  1760                           	line	165
  1761                           	
  1762  05BA                     l119:	
  1763                           	
  1764  05BA                     l1792:	
  1765                           ;PR25.c: 164: }
  1766                           ;PR25.c: 165: i+=1;
  1767  05BA  3001               	movlw	(01h)
  1768  05BB  00A5               	movwf	(??_main+0)+0
  1769  05BC  0825               	movf	(??_main+0)+0,w
  1770  05BD  07D2               	addwf	(main@i),f
  1771  05BE  2DBF               	goto	l1794
  1772                           	line	166
  1773                           	
  1774  05BF                     l106:	
  1775                           	line	152
  1776                           	
  1777  05BF                     l1794:	
  1778  05BF  301A               	movlw	(01Ah)
  1779  05C0  1283               	bcf	status, 5	;RP0=0, select bank0
  1780  05C1  1303               	bcf	status, 6	;RP1=0, select bank0
  1781  05C2  0252               	subwf	(main@i),w
  1782  05C3  1C03               	skipc
  1783  05C4  2DC6               	goto	u1621
  1784  05C5  2DC7               	goto	u1620
  1785  05C6                     u1621:
  1786  05C6  2D7A               	goto	l108
  1787  05C7                     u1620:
  1788                           	
  1789  05C7                     l126:	
  1790                           	line	168
  1791                           ;PR25.c: 166: }
  1792                           ;PR25.c: 168: mode=0;
  1793  05C7  01CC               	clrf	(main@mode)
  1794                           	line	169
  1795                           ;PR25.c: 169: i=0;
  1796  05C8  01D2               	clrf	(main@i)
  1797                           	line	170
  1798                           	
  1799  05C9                     l1796:	
  1800                           ;PR25.c: 170: lcd_clr();
  1801  05C9  120A  158A  2658   	fcall	_lcd_clr
              120A  118A         
  1802                           	line	172
  1803                           	
  1804  05CE                     l1798:	
  1805                           ;PR25.c: 172: for(i=0;i<8;i++)
  1806  05CE  1283               	bcf	status, 5	;RP0=0, select bank0
  1807  05CF  1303               	bcf	status, 6	;RP1=0, select bank0
  1808  05D0  01D2               	clrf	(main@i)
  1809                           	
  1810  05D1                     l1800:	
  1811  05D1  3008               	movlw	(08h)
  1812  05D2  0252               	subwf	(main@i),w
  1813  05D3  1C03               	skipc
  1814  05D4  2DD6               	goto	u1631
  1815  05D5  2DD7               	goto	u1630
  1816  05D6                     u1631:
  1817  05D6  2DD9               	goto	l1804
  1818  05D7                     u1630:
  1819  05D7  2DEF               	goto	l128
  1820                           	
  1821  05D8                     l1802:	
  1822  05D8  2DEF               	goto	l128
  1823                           	line	173
  1824                           	
  1825  05D9                     l127:	
  1826                           	line	174
  1827                           	
  1828  05D9                     l1804:	
  1829                           ;PR25.c: 173: {
  1830                           ;PR25.c: 174: convert1=(convert1<<1)|data[i+1];
  1831  05D9  0852               	movf	(main@i),w
  1832  05DA  3E01               	addlw	01h
  1833  05DB  3E2A               	addlw	main@data&0ffh
  1834  05DC  0084               	movwf	fsr0
  1835  05DD  0850               	movf	(main@convert1),w
  1836  05DE  00A5               	movwf	(??_main+0)+0
  1837  05DF  0725               	addwf	(??_main+0)+0,w
  1838  05E0  1383               	bcf	status, 7	;select IRP bank0
  1839  05E1  0400               	iorwf	indf,w
  1840  05E2  00A6               	movwf	(??_main+1)+0
  1841  05E3  0826               	movf	(??_main+1)+0,w
  1842  05E4  00D0               	movwf	(main@convert1)
  1843                           	line	172
  1844                           	
  1845  05E5                     l1806:	
  1846  05E5  3001               	movlw	(01h)
  1847  05E6  00A5               	movwf	(??_main+0)+0
  1848  05E7  0825               	movf	(??_main+0)+0,w
  1849  05E8  07D2               	addwf	(main@i),f
  1850                           	
  1851  05E9                     l1808:	
  1852  05E9  3008               	movlw	(08h)
  1853  05EA  0252               	subwf	(main@i),w
  1854  05EB  1C03               	skipc
  1855  05EC  2DEE               	goto	u1641
  1856  05ED  2DEF               	goto	u1640
  1857  05EE                     u1641:
  1858  05EE  2DD9               	goto	l1804
  1859  05EF                     u1640:
  1860                           	
  1861  05EF                     l128:	
  1862                           	line	176
  1863                           ;PR25.c: 175: }
  1864                           ;PR25.c: 176: for(i=0;i<16;i++)
  1865  05EF  01D2               	clrf	(main@i)
  1866                           	
  1867  05F0                     l1810:	
  1868  05F0  3010               	movlw	(010h)
  1869  05F1  0252               	subwf	(main@i),w
  1870  05F2  1C03               	skipc
  1871  05F3  2DF5               	goto	u1651
  1872  05F4  2DF6               	goto	u1650
  1873  05F5                     u1651:
  1874  05F5  2DF8               	goto	l1814
  1875  05F6                     u1650:
  1876  05F6  2E1C               	goto	l1820
  1877                           	
  1878  05F7                     l1812:	
  1879  05F7  2E1C               	goto	l1820
  1880                           	line	177
  1881                           	
  1882  05F8                     l129:	
  1883                           	line	178
  1884                           	
  1885  05F8                     l1814:	
  1886                           ;PR25.c: 177: {
  1887                           ;PR25.c: 178: convert2=(convert2<<1)|data[i+9];
  1888  05F8  0852               	movf	(main@i),w
  1889  05F9  3E09               	addlw	09h
  1890  05FA  3E2A               	addlw	main@data&0ffh
  1891  05FB  0084               	movwf	fsr0
  1892  05FC  1383               	bcf	status, 7	;select IRP bank0
  1893  05FD  0800               	movf	indf,w
  1894  05FE  00A5               	movwf	(??_main+0)+0+0
  1895  05FF  01A6               	clrf	(??_main+0)+0+1
  1896  0600  084F               	movf	(main@convert2+1),w
  1897  0601  00A8               	movwf	(??_main+2)+0+1
  1898  0602  084E               	movf	(main@convert2),w
  1899  0603  00A7               	movwf	(??_main+2)+0
  1900  0604  3001               	movlw	01h
  1901  0605  00FF               	movwf	btemp+1
  1902  0606                     u1665:
  1903  0606  1003               	clrc
  1904  0607  0DA7               	rlf	(??_main+2)+0,f
  1905  0608  0DA8               	rlf	(??_main+2)+1,f
  1906  0609  0BFF               	decfsz	btemp+1,f
  1907  060A  2E06               	goto	u1665
  1908  060B  0825               	movf	0+(??_main+0)+0,w
  1909  060C  0427               	iorwf	0+(??_main+2)+0,w
  1910  060D  00CE               	movwf	(main@convert2)
  1911  060E  0826               	movf	1+(??_main+0)+0,w
  1912  060F  0428               	iorwf	1+(??_main+2)+0,w
  1913  0610  00CF               	movwf	1+(main@convert2)
  1914                           	line	176
  1915                           	
  1916  0611                     l1816:	
  1917  0611  3001               	movlw	(01h)
  1918  0612  00A5               	movwf	(??_main+0)+0
  1919  0613  0825               	movf	(??_main+0)+0,w
  1920  0614  07D2               	addwf	(main@i),f
  1921                           	
  1922  0615                     l1818:	
  1923  0615  3010               	movlw	(010h)
  1924  0616  0252               	subwf	(main@i),w
  1925  0617  1C03               	skipc
  1926  0618  2E1A               	goto	u1671
  1927  0619  2E1B               	goto	u1670
  1928  061A                     u1671:
  1929  061A  2DF8               	goto	l1814
  1930  061B                     u1670:
  1931  061B  2E1C               	goto	l1820
  1932                           	
  1933  061C                     l130:	
  1934                           	line	181
  1935                           	
  1936  061C                     l1820:	
  1937                           ;PR25.c: 179: }
  1938                           ;PR25.c: 181: id1[1]=convert1;
  1939  061C  0850               	movf	(main@convert1),w
  1940  061D  00A5               	movwf	(??_main+0)+0
  1941  061E  0825               	movf	(??_main+0)+0,w
  1942  061F  00CA               	movwf	0+(main@id1)+01h
  1943                           	line	182
  1944                           	
  1945  0620                     l1822:	
  1946                           ;PR25.c: 182: id2[1]=convert2;
  1947  0620  084F               	movf	(main@convert2+1),w
  1948  0621  01C8               	clrf	1+(main@id2)+02h
  1949  0622  07C8               	addwf	1+(main@id2)+02h
  1950  0623  084E               	movf	(main@convert2),w
  1951  0624  01C7               	clrf	0+(main@id2)+02h
  1952  0625  07C7               	addwf	0+(main@id2)+02h
  1953                           
  1954                           	line	184
  1955                           	
  1956  0626                     l1824:	
  1957                           ;PR25.c: 184: database=2;
  1958  0626  3002               	movlw	(02h)
  1959  0627  00A5               	movwf	(??_main+0)+0
  1960  0628  0825               	movf	(??_main+0)+0,w
  1961  0629  00C4               	movwf	(main@database)
  1962                           	line	185
  1963                           	
  1964  062A                     l1826:	
  1965                           ;PR25.c: 185: lcd_clr();
  1966  062A  120A  158A  2658   	fcall	_lcd_clr
              120A  118A         
  1967  062F  2E30               	goto	l1828
  1968                           	line	186
  1969                           	
  1970  0630                     l104:	
  1971                           	line	144
  1972                           	
  1973  0630                     l1828:	
  1974  0630  1283               	bcf	status, 5	;RP0=0, select bank0
  1975  0631  1303               	bcf	status, 6	;RP1=0, select bank0
  1976  0632  084C               	movf	(main@mode),w
  1977  0633  3A02               	xorlw	02h
  1978  0634  1903               	skipnz
  1979  0635  2E37               	goto	u1681
  1980  0636  2E38               	goto	u1680
  1981  0637                     u1681:
  1982  0637  2D5B               	goto	l1772
  1983  0638                     u1680:
  1984  0638  2FC7               	goto	l1916
  1985                           	
  1986  0639                     l131:	
  1987                           	line	188
  1988                           ;PR25.c: 186: }
  1989                           ;PR25.c: 188: switch(database)
  1990  0639  2FC7               	goto	l1916
  1991                           	line	190
  1992                           ;PR25.c: 189: {
  1993                           ;PR25.c: 190: case 1:
  1994                           	
  1995  063A                     l133:	
  1996                           	line	191
  1997                           ;PR25.c: 191: RA1=1;
  1998  063A  1485               	bsf	(41/8),(41)&7	;volatile
  1999                           	line	192
  2000                           ;PR25.c: 192: RC3=0;
  2001  063B  1187               	bcf	(59/8),(59)&7	;volatile
  2002                           	line	193
  2003                           	
  2004  063C                     l1830:	
  2005                           ;PR25.c: 193: lcd_goto(0);
  2006  063C  3000               	movlw	(0)
  2007  063D  120A  158A  269E   	fcall	_lcd_goto
              120A  118A         
  2008                           	line	194
  2009                           	
  2010  0642                     l1832:	
  2011                           ;PR25.c: 194: send_string("ID no: ");
  2012  0642  3093               	movlw	((STR_7-__stringbase))&0ffh
  2013  0643  120A  158A  26DC   	fcall	_send_string
              120A  118A         
  2014                           	line	195
  2015                           	
  2016  0648                     l1834:	
  2017                           ;PR25.c: 195: lcd_goto(7);
  2018  0648  3007               	movlw	(07h)
  2019  0649  120A  158A  269E   	fcall	_lcd_goto
              120A  118A         
  2020                           	line	196
  2021                           	
  2022  064E                     l1836:	
  2023                           ;PR25.c: 196: send_dec(convert1,3);
  2024  064E  1283               	bcf	status, 5	;RP0=0, select bank0
  2025  064F  1303               	bcf	status, 6	;RP1=0, select bank0
  2026  0650  0850               	movf	(main@convert1),w
  2027  0651  00A5               	movwf	(??_main+0)+0
  2028  0652  01A6               	clrf	((??_main+0)+0+1)
  2029  0653  01A7               	clrf	((??_main+0)+0+2)
  2030  0654  01A8               	clrf	((??_main+0)+0+3)
  2031  0655  0828               	movf	3+(??_main+0)+0,w
  2032  0656  00A3               	movwf	(?_send_dec+3)
  2033  0657  0827               	movf	2+(??_main+0)+0,w
  2034  0658  00A2               	movwf	(?_send_dec+2)
  2035  0659  0826               	movf	1+(??_main+0)+0,w
  2036  065A  00A1               	movwf	(?_send_dec+1)
  2037  065B  0825               	movf	0+(??_main+0)+0,w
  2038  065C  00A0               	movwf	(?_send_dec)
  2039                           
  2040  065D  3003               	movlw	(03h)
  2041  065E  00A9               	movwf	(??_main+4)+0
  2042  065F  0829               	movf	(??_main+4)+0,w
  2043  0660  00A4               	movwf	0+(?_send_dec)+04h
  2044  0661  120A  118A  210B   	fcall	_send_dec
              120A  118A         
  2045                           	line	197
  2046                           	
  2047  0666                     l1838:	
  2048                           ;PR25.c: 197: lcd_goto(10);
  2049  0666  300A               	movlw	(0Ah)
  2050  0667  120A  158A  269E   	fcall	_lcd_goto
              120A  118A         
  2051                           	line	198
  2052                           	
  2053  066C                     l1840:	
  2054                           ;PR25.c: 198: send_dec(convert2,5);
  2055  066C  1283               	bcf	status, 5	;RP0=0, select bank0
  2056  066D  1303               	bcf	status, 6	;RP1=0, select bank0
  2057  066E  084E               	movf	(main@convert2),w
  2058  066F  00A0               	movwf	(?_send_dec)
  2059  0670  084F               	movf	(main@convert2+1),w
  2060  0671  00A1               	movwf	((?_send_dec))+1
  2061  0672  01A2               	clrf	2+((?_send_dec))
  2062  0673  01A3               	clrf	3+((?_send_dec))
  2063  0674  3005               	movlw	(05h)
  2064  0675  00A5               	movwf	(??_main+0)+0
  2065  0676  0825               	movf	(??_main+0)+0,w
  2066  0677  00A4               	movwf	0+(?_send_dec)+04h
  2067  0678  120A  118A  210B   	fcall	_send_dec
              120A  118A         
  2068                           	line	199
  2069                           	
  2070  067D                     l1842:	
  2071                           ;PR25.c: 199: lcd_goto(20);
  2072  067D  3014               	movlw	(014h)
  2073  067E  120A  158A  269E   	fcall	_lcd_goto
              120A  118A         
  2074                           	line	200
  2075                           ;PR25.c: 200: send_string("User identified. ");
  2076  0683  3001               	movlw	((STR_8-__stringbase))&0ffh
  2077  0684  120A  158A  26DC   	fcall	_send_string
              120A  118A         
  2078                           	line	201
  2079                           	
  2080  0689                     l1844:	
  2081                           ;PR25.c: 201: for(repeat=12; repeat>0; repeat--)
  2082  0689  300C               	movlw	(0Ch)
  2083  068A  1283               	bcf	status, 5	;RP0=0, select bank0
  2084  068B  1303               	bcf	status, 6	;RP1=0, select bank0
  2085  068C  00A5               	movwf	(??_main+0)+0
  2086  068D  0825               	movf	(??_main+0)+0,w
  2087  068E  00D1               	movwf	(main@repeat)
  2088                           	
  2089  068F                     l1846:	
  2090  068F  08D1               	movf	(main@repeat),f
  2091  0690  1D03               	skipz
  2092  0691  2E93               	goto	u1691
  2093  0692  2E94               	goto	u1690
  2094  0693                     u1691:
  2095  0693  2E96               	goto	l1850
  2096  0694                     u1690:
  2097  0694  2EAD               	goto	l1856
  2098                           	
  2099  0695                     l1848:	
  2100  0695  2EAD               	goto	l1856
  2101                           	line	202
  2102                           	
  2103  0696                     l134:	
  2104                           	line	203
  2105                           	
  2106  0696                     l1850:	
  2107                           ;PR25.c: 202: {
  2108                           ;PR25.c: 203: delay(1000000);
  2109  0696  3000               	movlw	0
  2110  0697  00F3               	movwf	(?_delay+3)
  2111  0698  300F               	movlw	0Fh
  2112  0699  00F2               	movwf	(?_delay+2)
  2113  069A  3042               	movlw	042h
  2114  069B  00F1               	movwf	(?_delay+1)
  2115  069C  3040               	movlw	040h
  2116  069D  00F0               	movwf	(?_delay)
  2117                           
  2118  069E  120A  158A  2702   	fcall	_delay
              120A  118A         
  2119                           	line	201
  2120                           	
  2121  06A3                     l1852:	
  2122  06A3  3001               	movlw	low(01h)
  2123  06A4  1283               	bcf	status, 5	;RP0=0, select bank0
  2124  06A5  1303               	bcf	status, 6	;RP1=0, select bank0
  2125  06A6  02D1               	subwf	(main@repeat),f
  2126                           	
  2127  06A7                     l1854:	
  2128  06A7  08D1               	movf	(main@repeat),f
  2129  06A8  1D03               	skipz
  2130  06A9  2EAB               	goto	u1701
  2131  06AA  2EAC               	goto	u1700
  2132  06AB                     u1701:
  2133  06AB  2E96               	goto	l1850
  2134  06AC                     u1700:
  2135  06AC  2EAD               	goto	l1856
  2136                           	
  2137  06AD                     l135:	
  2138                           	line	205
  2139                           	
  2140  06AD                     l1856:	
  2141                           ;PR25.c: 204: }
  2142                           ;PR25.c: 205: lcd_clr();
  2143  06AD  120A  158A  2658   	fcall	_lcd_clr
              120A  118A         
  2144                           	line	206
  2145                           ;PR25.c: 206: lcd_goto(0);
  2146  06B2  3000               	movlw	(0)
  2147  06B3  120A  158A  269E   	fcall	_lcd_goto
              120A  118A         
  2148                           	line	207
  2149                           	
  2150  06B8                     l1858:	
  2151                           ;PR25.c: 207: send_string("Door lock will");
  2152  06B8  3053               	movlw	((STR_9-__stringbase))&0ffh
  2153  06B9  120A  158A  26DC   	fcall	_send_string
              120A  118A         
  2154                           	line	208
  2155                           	
  2156  06BE                     l1860:	
  2157                           ;PR25.c: 208: lcd_goto(20);
  2158  06BE  3014               	movlw	(014h)
  2159  06BF  120A  158A  269E   	fcall	_lcd_goto
              120A  118A         
  2160                           	line	209
  2161                           ;PR25.c: 209: send_string("be locked in ");
  2162  06C4  3062               	movlw	((STR_10-__stringbase))&0ffh
  2163  06C5  120A  158A  26DC   	fcall	_send_string
              120A  118A         
  2164                           	line	211
  2165                           	
  2166  06CA                     l1862:	
  2167                           ;PR25.c: 211: for(a=5;a>0;a--)
  2168  06CA  3005               	movlw	(05h)
  2169  06CB  1283               	bcf	status, 5	;RP0=0, select bank0
  2170  06CC  1303               	bcf	status, 6	;RP1=0, select bank0
  2171  06CD  00A5               	movwf	(??_main+0)+0
  2172  06CE  0825               	movf	(??_main+0)+0,w
  2173  06CF  00CB               	movwf	(main@a)
  2174                           	
  2175  06D0                     l1864:	
  2176  06D0  08CB               	movf	(main@a),f
  2177  06D1  1D03               	skipz
  2178  06D2  2ED4               	goto	u1711
  2179  06D3  2ED5               	goto	u1710
  2180  06D4                     u1711:
  2181  06D4  2ED7               	goto	l1868
  2182  06D5                     u1710:
  2183  06D5  2FD1               	goto	l1918
  2184                           	
  2185  06D6                     l1866:	
  2186  06D6  2FD1               	goto	l1918
  2187                           	line	212
  2188                           	
  2189  06D7                     l136:	
  2190                           	line	213
  2191                           	
  2192  06D7                     l1868:	
  2193                           ;PR25.c: 212: {
  2194                           ;PR25.c: 213: lcd_goto(34);
  2195  06D7  3022               	movlw	(022h)
  2196  06D8  120A  158A  269E   	fcall	_lcd_goto
              120A  118A         
  2197                           	line	214
  2198                           ;PR25.c: 214: send_dec(a, 1);
  2199  06DD  1283               	bcf	status, 5	;RP0=0, select bank0
  2200  06DE  1303               	bcf	status, 6	;RP1=0, select bank0
  2201  06DF  084B               	movf	(main@a),w
  2202  06E0  00A5               	movwf	(??_main+0)+0
  2203  06E1  01A6               	clrf	((??_main+0)+0+1)
  2204  06E2  01A7               	clrf	((??_main+0)+0+2)
  2205  06E3  01A8               	clrf	((??_main+0)+0+3)
  2206  06E4  0828               	movf	3+(??_main+0)+0,w
  2207  06E5  00A3               	movwf	(?_send_dec+3)
  2208  06E6  0827               	movf	2+(??_main+0)+0,w
  2209  06E7  00A2               	movwf	(?_send_dec+2)
  2210  06E8  0826               	movf	1+(??_main+0)+0,w
  2211  06E9  00A1               	movwf	(?_send_dec+1)
  2212  06EA  0825               	movf	0+(??_main+0)+0,w
  2213  06EB  00A0               	movwf	(?_send_dec)
  2214                           
  2215  06EC  01A4               	clrf	0+(?_send_dec)+04h
  2216  06ED  1403               	bsf	status,0
  2217  06EE  0DA4               	rlf	0+(?_send_dec)+04h,f
  2218  06EF  120A  118A  210B   	fcall	_send_dec
              120A  118A         
  2219                           	line	215
  2220                           	
  2221  06F4                     l1870:	
  2222                           ;PR25.c: 215: for(repeat=10; repeat>0; repeat--)
  2223  06F4  300A               	movlw	(0Ah)
  2224  06F5  1283               	bcf	status, 5	;RP0=0, select bank0
  2225  06F6  1303               	bcf	status, 6	;RP1=0, select bank0
  2226  06F7  00A5               	movwf	(??_main+0)+0
  2227  06F8  0825               	movf	(??_main+0)+0,w
  2228  06F9  00D1               	movwf	(main@repeat)
  2229                           	
  2230  06FA                     l1872:	
  2231  06FA  08D1               	movf	(main@repeat),f
  2232  06FB  1D03               	skipz
  2233  06FC  2EFE               	goto	u1721
  2234  06FD  2EFF               	goto	u1720
  2235  06FE                     u1721:
  2236  06FE  2F01               	goto	l1876
  2237  06FF                     u1720:
  2238  06FF  2F18               	goto	l1882
  2239                           	
  2240  0700                     l1874:	
  2241  0700  2F18               	goto	l1882
  2242                           	line	216
  2243                           	
  2244  0701                     l138:	
  2245                           	line	217
  2246                           	
  2247  0701                     l1876:	
  2248                           ;PR25.c: 216: {
  2249                           ;PR25.c: 217: delay(1000000);
  2250  0701  3000               	movlw	0
  2251  0702  00F3               	movwf	(?_delay+3)
  2252  0703  300F               	movlw	0Fh
  2253  0704  00F2               	movwf	(?_delay+2)
  2254  0705  3042               	movlw	042h
  2255  0706  00F1               	movwf	(?_delay+1)
  2256  0707  3040               	movlw	040h
  2257  0708  00F0               	movwf	(?_delay)
  2258                           
  2259  0709  120A  158A  2702   	fcall	_delay
              120A  118A         
  2260                           	line	215
  2261                           	
  2262  070E                     l1878:	
  2263  070E  3001               	movlw	low(01h)
  2264  070F  1283               	bcf	status, 5	;RP0=0, select bank0
  2265  0710  1303               	bcf	status, 6	;RP1=0, select bank0
  2266  0711  02D1               	subwf	(main@repeat),f
  2267                           	
  2268  0712                     l1880:	
  2269  0712  08D1               	movf	(main@repeat),f
  2270  0713  1D03               	skipz
  2271  0714  2F16               	goto	u1731
  2272  0715  2F17               	goto	u1730
  2273  0716                     u1731:
  2274  0716  2F01               	goto	l1876
  2275  0717                     u1730:
  2276  0717  2F18               	goto	l1882
  2277                           	
  2278  0718                     l139:	
  2279                           	line	211
  2280                           	
  2281  0718                     l1882:	
  2282  0718  3001               	movlw	low(01h)
  2283  0719  02CB               	subwf	(main@a),f
  2284                           	
  2285  071A                     l1884:	
  2286  071A  08CB               	movf	(main@a),f
  2287  071B  1D03               	skipz
  2288  071C  2F1E               	goto	u1741
  2289  071D  2F1F               	goto	u1740
  2290  071E                     u1741:
  2291  071E  2ED7               	goto	l1868
  2292  071F                     u1740:
  2293  071F  2FD1               	goto	l1918
  2294                           	
  2295  0720                     l137:	
  2296                           	line	220
  2297                           ;PR25.c: 218: }
  2298                           ;PR25.c: 219: }
  2299                           ;PR25.c: 220: break;
  2300  0720  2FD1               	goto	l1918
  2301                           	line	222
  2302                           ;PR25.c: 222: case 2:
  2303                           	
  2304  0721                     l141:	
  2305                           	line	223
  2306                           ;PR25.c: 223: RA1=1;
  2307  0721  1485               	bsf	(41/8),(41)&7	;volatile
  2308                           	line	224
  2309                           ;PR25.c: 224: RC3=0;
  2310  0722  1187               	bcf	(59/8),(59)&7	;volatile
  2311                           	line	225
  2312                           	
  2313  0723                     l1886:	
  2314                           ;PR25.c: 225: lcd_clr();
  2315  0723  120A  158A  2658   	fcall	_lcd_clr
              120A  118A         
  2316                           	line	226
  2317                           ;PR25.c: 226: lcd_goto(0);
  2318  0728  3000               	movlw	(0)
  2319  0729  120A  158A  269E   	fcall	_lcd_goto
              120A  118A         
  2320                           	line	227
  2321                           	
  2322  072E                     l1888:	
  2323                           ;PR25.c: 227: send_string("ID no: ");
  2324  072E  3093               	movlw	((STR_11-__stringbase))&0ffh
  2325  072F  120A  158A  26DC   	fcall	_send_string
              120A  118A         
  2326                           	line	228
  2327                           	
  2328  0734                     l1890:	
  2329                           ;PR25.c: 228: lcd_goto(7);
  2330  0734  3007               	movlw	(07h)
  2331  0735  120A  158A  269E   	fcall	_lcd_goto
              120A  118A         
  2332                           	line	229
  2333                           	
  2334  073A                     l1892:	
  2335                           ;PR25.c: 229: send_dec(convert1,3);
  2336  073A  1283               	bcf	status, 5	;RP0=0, select bank0
  2337  073B  1303               	bcf	status, 6	;RP1=0, select bank0
  2338  073C  0850               	movf	(main@convert1),w
  2339  073D  00A5               	movwf	(??_main+0)+0
  2340  073E  01A6               	clrf	((??_main+0)+0+1)
  2341  073F  01A7               	clrf	((??_main+0)+0+2)
  2342  0740  01A8               	clrf	((??_main+0)+0+3)
  2343  0741  0828               	movf	3+(??_main+0)+0,w
  2344  0742  00A3               	movwf	(?_send_dec+3)
  2345  0743  0827               	movf	2+(??_main+0)+0,w
  2346  0744  00A2               	movwf	(?_send_dec+2)
  2347  0745  0826               	movf	1+(??_main+0)+0,w
  2348  0746  00A1               	movwf	(?_send_dec+1)
  2349  0747  0825               	movf	0+(??_main+0)+0,w
  2350  0748  00A0               	movwf	(?_send_dec)
  2351                           
  2352  0749  3003               	movlw	(03h)
  2353  074A  00A9               	movwf	(??_main+4)+0
  2354  074B  0829               	movf	(??_main+4)+0,w
  2355  074C  00A4               	movwf	0+(?_send_dec)+04h
  2356  074D  120A  118A  210B   	fcall	_send_dec
              120A  118A         
  2357                           	line	230
  2358                           	
  2359  0752                     l1894:	
  2360                           ;PR25.c: 230: lcd_goto(10);
  2361  0752  300A               	movlw	(0Ah)
  2362  0753  120A  158A  269E   	fcall	_lcd_goto
              120A  118A         
  2363                           	line	231
  2364                           	
  2365  0758                     l1896:	
  2366                           ;PR25.c: 231: send_dec(convert2,5);
  2367  0758  1283               	bcf	status, 5	;RP0=0, select bank0
  2368  0759  1303               	bcf	status, 6	;RP1=0, select bank0
  2369  075A  084E               	movf	(main@convert2),w
  2370  075B  00A0               	movwf	(?_send_dec)
  2371  075C  084F               	movf	(main@convert2+1),w
  2372  075D  00A1               	movwf	((?_send_dec))+1
  2373  075E  01A2               	clrf	2+((?_send_dec))
  2374  075F  01A3               	clrf	3+((?_send_dec))
  2375  0760  3005               	movlw	(05h)
  2376  0761  00A5               	movwf	(??_main+0)+0
  2377  0762  0825               	movf	(??_main+0)+0,w
  2378  0763  00A4               	movwf	0+(?_send_dec)+04h
  2379  0764  120A  118A  210B   	fcall	_send_dec
              120A  118A         
  2380                           	line	232
  2381                           	
  2382  0769                     l1898:	
  2383                           ;PR25.c: 232: lcd_goto(20);
  2384  0769  3014               	movlw	(014h)
  2385  076A  120A  158A  269E   	fcall	_lcd_goto
              120A  118A         
  2386                           	line	233
  2387                           ;PR25.c: 233: send_string("User ID saved.");
  2388  076F  3044               	movlw	((STR_12-__stringbase))&0ffh
  2389  0770  120A  158A  26DC   	fcall	_send_string
              120A  118A         
  2390                           	line	234
  2391                           ;PR25.c: 234: break;
  2392  0775  2FD1               	goto	l1918
  2393                           	line	236
  2394                           ;PR25.c: 236: default:
  2395                           	
  2396  0776                     l142:	
  2397                           	line	237
  2398                           ;PR25.c: 237: RA1=0;
  2399  0776  1085               	bcf	(41/8),(41)&7	;volatile
  2400                           	line	238
  2401                           ;PR25.c: 238: RC3=1;
  2402  0777  1587               	bsf	(59/8),(59)&7	;volatile
  2403                           	line	239
  2404                           	
  2405  0778                     l1900:	
  2406                           ;PR25.c: 239: lcd_goto(0);
  2407  0778  3000               	movlw	(0)
  2408  0779  120A  158A  269E   	fcall	_lcd_goto
              120A  118A         
  2409                           	line	240
  2410                           	
  2411  077E                     l1902:	
  2412                           ;PR25.c: 240: send_string("ID no: ");
  2413  077E  3093               	movlw	((STR_13-__stringbase))&0ffh
  2414  077F  120A  158A  26DC   	fcall	_send_string
              120A  118A         
  2415                           	line	241
  2416                           	
  2417  0784                     l1904:	
  2418                           ;PR25.c: 241: lcd_goto(7);
  2419  0784  3007               	movlw	(07h)
  2420  0785  120A  158A  269E   	fcall	_lcd_goto
              120A  118A         
  2421                           	line	242
  2422                           	
  2423  078A                     l1906:	
  2424                           ;PR25.c: 242: send_dec(convert1,3);
  2425  078A  1283               	bcf	status, 5	;RP0=0, select bank0
  2426  078B  1303               	bcf	status, 6	;RP1=0, select bank0
  2427  078C  0850               	movf	(main@convert1),w
  2428  078D  00A5               	movwf	(??_main+0)+0
  2429  078E  01A6               	clrf	((??_main+0)+0+1)
  2430  078F  01A7               	clrf	((??_main+0)+0+2)
  2431  0790  01A8               	clrf	((??_main+0)+0+3)
  2432  0791  0828               	movf	3+(??_main+0)+0,w
  2433  0792  00A3               	movwf	(?_send_dec+3)
  2434  0793  0827               	movf	2+(??_main+0)+0,w
  2435  0794  00A2               	movwf	(?_send_dec+2)
  2436  0795  0826               	movf	1+(??_main+0)+0,w
  2437  0796  00A1               	movwf	(?_send_dec+1)
  2438  0797  0825               	movf	0+(??_main+0)+0,w
  2439  0798  00A0               	movwf	(?_send_dec)
  2440                           
  2441  0799  3003               	movlw	(03h)
  2442  079A  00A9               	movwf	(??_main+4)+0
  2443  079B  0829               	movf	(??_main+4)+0,w
  2444  079C  00A4               	movwf	0+(?_send_dec)+04h
  2445  079D  120A  118A  210B   	fcall	_send_dec
              120A  118A         
  2446                           	line	243
  2447                           	
  2448  07A2                     l1908:	
  2449                           ;PR25.c: 243: lcd_goto(10);
  2450  07A2  300A               	movlw	(0Ah)
  2451  07A3  120A  158A  269E   	fcall	_lcd_goto
              120A  118A         
  2452                           	line	244
  2453                           	
  2454  07A8                     l1910:	
  2455                           ;PR25.c: 244: send_dec(convert2,5);
  2456  07A8  1283               	bcf	status, 5	;RP0=0, select bank0
  2457  07A9  1303               	bcf	status, 6	;RP1=0, select bank0
  2458  07AA  084E               	movf	(main@convert2),w
  2459  07AB  00A0               	movwf	(?_send_dec)
  2460  07AC  084F               	movf	(main@convert2+1),w
  2461  07AD  00A1               	movwf	((?_send_dec))+1
  2462  07AE  01A2               	clrf	2+((?_send_dec))
  2463  07AF  01A3               	clrf	3+((?_send_dec))
  2464  07B0  3005               	movlw	(05h)
  2465  07B1  00A5               	movwf	(??_main+0)+0
  2466  07B2  0825               	movf	(??_main+0)+0,w
  2467  07B3  00A4               	movwf	0+(?_send_dec)+04h
  2468  07B4  120A  118A  210B   	fcall	_send_dec
              120A  118A         
  2469                           	line	245
  2470                           	
  2471  07B9                     l1912:	
  2472                           ;PR25.c: 245: lcd_goto(20);
  2473  07B9  3014               	movlw	(014h)
  2474  07BA  120A  158A  269E   	fcall	_lcd_goto
              120A  118A         
  2475                           	line	246
  2476                           ;PR25.c: 246: send_string("User not found.");
  2477  07BF  3024               	movlw	((STR_14-__stringbase))&0ffh
  2478  07C0  120A  158A  26DC   	fcall	_send_string
              120A  118A         
  2479                           	line	247
  2480                           ;PR25.c: 247: break;
  2481  07C5  2FD1               	goto	l1918
  2482                           	line	248
  2483                           	
  2484  07C6                     l1914:	
  2485                           ;PR25.c: 248: }
  2486  07C6  2FD1               	goto	l1918
  2487                           	line	188
  2488                           	
  2489  07C7                     l132:	
  2490                           	
  2491  07C7                     l1916:	
  2492  07C7  1283               	bcf	status, 5	;RP0=0, select bank0
  2493  07C8  1303               	bcf	status, 6	;RP1=0, select bank0
  2494  07C9  0844               	movf	(main@database),w
  2495                           	; Switch size 1, requested type "space"
  2496                           ; Number of cases is 2, Range of values is 1 to 2
  2497                           ; switch strategies available:
  2498                           ; Name         Instructions Cycles
  2499                           ; simple_byte            7     4 (average)
  2500                           ; direct_byte           17    11 (fixed)
  2501                           ; jumptable            263     9 (fixed)
  2502                           ;	Chosen strategy is simple_byte
  2503                           
  2504                           	opt asmopt_off
  2505  07CA  3A01               	xorlw	1^0	; case 1
  2506  07CB  1903               	skipnz
  2507  07CC  2E3A               	goto	l133
  2508  07CD  3A03               	xorlw	2^1	; case 2
  2509  07CE  1903               	skipnz
  2510  07CF  2F21               	goto	l141
  2511  07D0  2F76               	goto	l142
  2512                           	opt asmopt_on
  2513                           
  2514                           	line	248
  2515                           	
  2516  07D1                     l140:	
  2517                           	line	250
  2518                           	
  2519  07D1                     l1918:	
  2520                           ;PR25.c: 250: for(repeat=12; repeat>0; repeat--)
  2521  07D1  300C               	movlw	(0Ch)
  2522  07D2  1283               	bcf	status, 5	;RP0=0, select bank0
  2523  07D3  1303               	bcf	status, 6	;RP1=0, select bank0
  2524  07D4  00A5               	movwf	(??_main+0)+0
  2525  07D5  0825               	movf	(??_main+0)+0,w
  2526  07D6  00D1               	movwf	(main@repeat)
  2527                           	
  2528  07D7                     l1920:	
  2529  07D7  08D1               	movf	(main@repeat),f
  2530  07D8  1D03               	skipz
  2531  07D9  2FDB               	goto	u1751
  2532  07DA  2FDC               	goto	u1750
  2533  07DB                     u1751:
  2534  07DB  2FDE               	goto	l1924
  2535  07DC                     u1750:
  2536  07DC  2FF4               	goto	l144
  2537                           	
  2538  07DD                     l1922:	
  2539  07DD  2FF4               	goto	l144
  2540                           	line	251
  2541                           	
  2542  07DE                     l143:	
  2543                           	line	252
  2544                           	
  2545  07DE                     l1924:	
  2546                           ;PR25.c: 251: {
  2547                           ;PR25.c: 252: delay(1000000);
  2548  07DE  3000               	movlw	0
  2549  07DF  00F3               	movwf	(?_delay+3)
  2550  07E0  300F               	movlw	0Fh
  2551  07E1  00F2               	movwf	(?_delay+2)
  2552  07E2  3042               	movlw	042h
  2553  07E3  00F1               	movwf	(?_delay+1)
  2554  07E4  3040               	movlw	040h
  2555  07E5  00F0               	movwf	(?_delay)
  2556                           
  2557  07E6  120A  158A  2702   	fcall	_delay
              120A  118A         
  2558                           	line	250
  2559                           	
  2560  07EB                     l1926:	
  2561  07EB  3001               	movlw	low(01h)
  2562  07EC  1283               	bcf	status, 5	;RP0=0, select bank0
  2563  07ED  1303               	bcf	status, 6	;RP1=0, select bank0
  2564  07EE  02D1               	subwf	(main@repeat),f
  2565                           	
  2566  07EF                     l1928:	
  2567  07EF  08D1               	movf	(main@repeat),f
  2568  07F0  1D03               	skipz
  2569  07F1  2FF3               	goto	u1761
  2570  07F2  2FF4               	goto	u1760
  2571  07F3                     u1761:
  2572  07F3  2FDE               	goto	l1924
  2573  07F4                     u1760:
  2574                           	
  2575  07F4                     l144:	
  2576                           	line	255
  2577                           ;PR25.c: 253: }
  2578                           ;PR25.c: 255: i=0;
  2579  07F4  01D2               	clrf	(main@i)
  2580                           	line	256
  2581                           ;PR25.c: 256: RC3=0;
  2582  07F5  1187               	bcf	(59/8),(59)&7	;volatile
  2583                           	line	257
  2584                           ;PR25.c: 257: database=0;
  2585  07F6  01C4               	clrf	(main@database)
  2586                           	line	258
  2587                           ;PR25.c: 258: RA1=0;
  2588  07F7  1085               	bcf	(41/8),(41)&7	;volatile
  2589                           	line	259
  2590                           ;PR25.c: 259: convert1=0;
  2591  07F8  01D0               	clrf	(main@convert1)
  2592                           	line	260
  2593                           	
  2594  07F9                     l1930:	
  2595                           ;PR25.c: 260: convert2=0;
  2596  07F9  01CE               	clrf	(main@convert2)
  2597  07FA  01CF               	clrf	(main@convert2+1)
  2598  07FB  2BFD               	goto	l51
  2599                           	line	261
  2600                           	
  2601  07FC                     l145:	
  2602                           	line	74
  2603  07FC  2BFD               	goto	l51
  2604                           	
  2605  07FD                     l146:	
  2606                           	line	262
  2607                           	
  2608  07FD                     l147:	
  2609                           	global	start
  2610  07FD  120A  118A  2800   	ljmp	start
  2611                           	opt stack 0
  2612                           GLOBAL	__end_of_main
  2613  0800                     	__end_of_main:
  2614                           	signat	_main,88
  2615                           	global	_init
  2616                           
  2617 ;; *************** function _init *****************
  2618 ;; Defined at:
  2619 ;;		line 267 in file "PR25.c"
  2620 ;; Parameters:    Size  Location     Type
  2621 ;;		None
  2622 ;; Auto vars:     Size  Location     Type
  2623 ;;		None
  2624 ;; Return value:  Size  Location     Type
  2625 ;;		None               void
  2626 ;; Registers used:
  2627 ;;		wreg, status,2, status,0, btemp+1, pclath, cstack
  2628 ;; Tracked objects:
  2629 ;;		On entry : 0/0
  2630 ;;		On exit  : 0/0
  2631 ;;		Unchanged: 0/0
  2632 ;; Data sizes:     COMMON   BANK0   BANK1   BANK3   BANK2
  2633 ;;      Params:         0       0       0       0       0
  2634 ;;      Locals:         0       0       0       0       0
  2635 ;;      Temps:          0       0       0       0       0
  2636 ;;      Totals:         0       0       0       0       0
  2637 ;;Total ram usage:        0 bytes
  2638 ;; Hardware stack levels used:    1
  2639 ;; Hardware stack levels required when called:    3
  2640 ;; This function calls:
  2641 ;;		_send_config
  2642 ;;		_delay
  2643 ;; This function is called by:
  2644 ;;		_main
  2645 ;; This function uses a non-reentrant model
  2646 ;;
  2647                           psect	text217,local,class=CODE,delta=2,merge=1
  2648                           global __ptext217
  2649  0F56                     __ptext217:
  2650                           psect	text217
  2651                           	file	"PR25.c"
  2652                           	line	267
  2653                           	global	__size_of_init
  2654  003C                     	__size_of_init	equ	__end_of_init-_init
  2655                           	
  2656  0F56                     _init:	
  2657                           	opt	stack 4
  2658                           ; Regs used in _init: [wreg+status,2+status,0+btemp+1+pclath+cstack]
  2659                           	line	269
  2660                           	
  2661  0F56                     l1538:	
  2662                           ;PR25.c: 269: ADCON1 = 0X06;
  2663  0F56  3006               	movlw	(06h)
  2664  0F57  1683               	bsf	status, 5	;RP0=1, select bank1
  2665  0F58  1303               	bcf	status, 6	;RP1=0, select bank1
  2666  0F59  009F               	movwf	(159)^080h	;volatile
  2667                           	line	272
  2668                           ;PR25.c: 272: TRISA = 0b00111100;
  2669  0F5A  303C               	movlw	(03Ch)
  2670  0F5B  0085               	movwf	(133)^080h	;volatile
  2671                           	line	273
  2672                           	
  2673  0F5C                     l1540:	
  2674                           ;PR25.c: 273: TRISB = 0b00000000;
  2675  0F5C  0186               	clrf	(134)^080h	;volatile
  2676                           	line	274
  2677                           	
  2678  0F5D                     l1542:	
  2679                           ;PR25.c: 274: TRISC = 0b00000111;
  2680  0F5D  3007               	movlw	(07h)
  2681  0F5E  0087               	movwf	(135)^080h	;volatile
  2682                           	line	277
  2683                           	
  2684  0F5F                     l1544:	
  2685                           ;PR25.c: 277: send_config(0b00000001);
  2686  0F5F  3001               	movlw	(01h)
  2687  0F60  120A  158A  2685   	fcall	_send_config
              120A  158A         
  2688                           	line	278
  2689                           	
  2690  0F65                     l1546:	
  2691                           ;PR25.c: 278: send_config(0b00000010);
  2692  0F65  3002               	movlw	(02h)
  2693  0F66  120A  158A  2685   	fcall	_send_config
              120A  158A         
  2694                           	line	279
  2695                           	
  2696  0F6B                     l1548:	
  2697                           ;PR25.c: 279: send_config(0b00000110);
  2698  0F6B  3006               	movlw	(06h)
  2699  0F6C  120A  158A  2685   	fcall	_send_config
              120A  158A         
  2700                           	line	280
  2701                           	
  2702  0F71                     l1550:	
  2703                           ;PR25.c: 280: send_config(0b00001100);
  2704  0F71  300C               	movlw	(0Ch)
  2705  0F72  120A  158A  2685   	fcall	_send_config
              120A  158A         
  2706                           	line	281
  2707                           	
  2708  0F77                     l1552:	
  2709                           ;PR25.c: 281: send_config(0b00111000);
  2710  0F77  3038               	movlw	(038h)
  2711  0F78  120A  158A  2685   	fcall	_send_config
              120A  158A         
  2712                           	line	283
  2713                           	
  2714  0F7D                     l1554:	
  2715                           ;PR25.c: 283: RC4=0;
  2716  0F7D  1283               	bcf	status, 5	;RP0=0, select bank0
  2717  0F7E  1303               	bcf	status, 6	;RP1=0, select bank0
  2718  0F7F  1207               	bcf	(60/8),(60)&7	;volatile
  2719                           	line	284
  2720                           	
  2721  0F80                     l1556:	
  2722                           ;PR25.c: 284: delay(5000);
  2723  0F80  3000               	movlw	0
  2724  0F81  00F3               	movwf	(?_delay+3)
  2725  0F82  3000               	movlw	0
  2726  0F83  00F2               	movwf	(?_delay+2)
  2727  0F84  3013               	movlw	013h
  2728  0F85  00F1               	movwf	(?_delay+1)
  2729  0F86  3088               	movlw	088h
  2730  0F87  00F0               	movwf	(?_delay)
  2731                           
  2732  0F88  120A  158A  2702   	fcall	_delay
              120A  158A         
  2733                           	line	285
  2734                           	
  2735  0F8D                     l1558:	
  2736                           ;PR25.c: 285: RC3=0;
  2737  0F8D  1283               	bcf	status, 5	;RP0=0, select bank0
  2738  0F8E  1303               	bcf	status, 6	;RP1=0, select bank0
  2739  0F8F  1187               	bcf	(59/8),(59)&7	;volatile
  2740                           	line	286
  2741                           	
  2742  0F90                     l1560:	
  2743                           ;PR25.c: 286: RA1=0;
  2744  0F90  1085               	bcf	(41/8),(41)&7	;volatile
  2745                           	line	287
  2746                           	
  2747  0F91                     l150:	
  2748  0F91  0008               	return
  2749                           	opt stack 0
  2750                           GLOBAL	__end_of_init
  2751  0F92                     	__end_of_init:
  2752                           	signat	_init,88
  2753                           	global	_lcd_clr
  2754                           
  2755 ;; *************** function _lcd_clr *****************
  2756 ;; Defined at:
  2757 ;;		line 390 in file "PR25.c"
  2758 ;; Parameters:    Size  Location     Type
  2759 ;;		None
  2760 ;; Auto vars:     Size  Location     Type
  2761 ;;		None
  2762 ;; Return value:  Size  Location     Type
  2763 ;;		None               void
  2764 ;; Registers used:
  2765 ;;		wreg, status,2, status,0, btemp+1, pclath, cstack
  2766 ;; Tracked objects:
  2767 ;;		On entry : 0/0
  2768 ;;		On exit  : 0/0
  2769 ;;		Unchanged: 0/0
  2770 ;; Data sizes:     COMMON   BANK0   BANK1   BANK3   BANK2
  2771 ;;      Params:         0       0       0       0       0
  2772 ;;      Locals:         0       0       0       0       0
  2773 ;;      Temps:          0       0       0       0       0
  2774 ;;      Totals:         0       0       0       0       0
  2775 ;;Total ram usage:        0 bytes
  2776 ;; Hardware stack levels used:    1
  2777 ;; Hardware stack levels required when called:    3
  2778 ;; This function calls:
  2779 ;;		_send_config
  2780 ;;		_delay
  2781 ;; This function is called by:
  2782 ;;		_main
  2783 ;; This function uses a non-reentrant model
  2784 ;;
  2785                           psect	text218,local,class=CODE,delta=2,merge=1
  2786                           global __ptext218
  2787  0E58                     __ptext218:
  2788                           psect	text218
  2789                           	file	"PR25.c"
  2790                           	line	390
  2791                           	global	__size_of_lcd_clr
  2792  0014                     	__size_of_lcd_clr	equ	__end_of_lcd_clr-_lcd_clr
  2793                           	
  2794  0E58                     _lcd_clr:	
  2795                           	opt	stack 4
  2796                           ; Regs used in _lcd_clr: [wreg+status,2+status,0+btemp+1+pclath+cstack]
  2797                           	line	391
  2798                           	
  2799  0E58                     l1562:	
  2800                           ;PR25.c: 391: send_config(0x01);
  2801  0E58  3001               	movlw	(01h)
  2802  0E59  120A  158A  2685   	fcall	_send_config
              120A  158A         
  2803                           	line	392
  2804                           ;PR25.c: 392: delay(350);
  2805  0E5E  3000               	movlw	0
  2806  0E5F  00F3               	movwf	(?_delay+3)
  2807  0E60  3000               	movlw	0
  2808  0E61  00F2               	movwf	(?_delay+2)
  2809  0E62  3001               	movlw	01h
  2810  0E63  00F1               	movwf	(?_delay+1)
  2811  0E64  305E               	movlw	05Eh
  2812  0E65  00F0               	movwf	(?_delay)
  2813                           
  2814  0E66  120A  158A  2702   	fcall	_delay
              120A  158A         
  2815                           	line	393
  2816                           	
  2817  0E6B                     l185:	
  2818  0E6B  0008               	return
  2819                           	opt stack 0
  2820                           GLOBAL	__end_of_lcd_clr
  2821  0E6C                     	__end_of_lcd_clr:
  2822                           	signat	_lcd_clr,88
  2823                           	global	_lcd_goto
  2824                           
  2825 ;; *************** function _lcd_goto *****************
  2826 ;; Defined at:
  2827 ;;		line 376 in file "PR25.c"
  2828 ;; Parameters:    Size  Location     Type
  2829 ;;  data            1    wreg     unsigned char 
  2830 ;; Auto vars:     Size  Location     Type
  2831 ;;  data            1    8[COMMON] unsigned char 
  2832 ;; Return value:  Size  Location     Type
  2833 ;;		None               void
  2834 ;; Registers used:
  2835 ;;		wreg, status,2, status,0, btemp+1, pclath, cstack
  2836 ;; Tracked objects:
  2837 ;;		On entry : 0/0
  2838 ;;		On exit  : 0/0
  2839 ;;		Unchanged: 0/0
  2840 ;; Data sizes:     COMMON   BANK0   BANK1   BANK3   BANK2
  2841 ;;      Params:         0       0       0       0       0
  2842 ;;      Locals:         1       0       0       0       0
  2843 ;;      Temps:          1       0       0       0       0
  2844 ;;      Totals:         2       0       0       0       0
  2845 ;;Total ram usage:        2 bytes
  2846 ;; Hardware stack levels used:    1
  2847 ;; Hardware stack levels required when called:    3
  2848 ;; This function calls:
  2849 ;;		_send_config
  2850 ;; This function is called by:
  2851 ;;		_main
  2852 ;; This function uses a non-reentrant model
  2853 ;;
  2854                           psect	text219,local,class=CODE,delta=2,merge=1
  2855                           global __ptext219
  2856  0E9E                     __ptext219:
  2857                           psect	text219
  2858                           	file	"PR25.c"
  2859                           	line	376
  2860                           	global	__size_of_lcd_goto
  2861  001D                     	__size_of_lcd_goto	equ	__end_of_lcd_goto-_lcd_goto
  2862                           	
  2863  0E9E                     _lcd_goto:	
  2864                           	opt	stack 4
  2865                           ; Regs used in _lcd_goto: [wreg+status,2+status,0+btemp+1+pclath+cstack]
  2866                           ;lcd_goto@data stored from wreg
  2867  0E9E  00F8               	movwf	(lcd_goto@data)
  2868                           	line	377
  2869                           	
  2870  0E9F                     l1564:	
  2871                           ;PR25.c: 377: if(data<16)
  2872  0E9F  3010               	movlw	(010h)
  2873  0EA0  0278               	subwf	(lcd_goto@data),w
  2874  0EA1  1803               	skipnc
  2875  0EA2  2EA4               	goto	u1041
  2876  0EA3  2EA5               	goto	u1040
  2877  0EA4                     u1041:
  2878  0EA4  2EAD               	goto	l1568
  2879  0EA5                     u1040:
  2880                           	line	379
  2881                           	
  2882  0EA5                     l1566:	
  2883                           ;PR25.c: 378: {
  2884                           ;PR25.c: 379: send_config(0x80+data);
  2885  0EA5  0878               	movf	(lcd_goto@data),w
  2886  0EA6  3E80               	addlw	080h
  2887  0EA7  120A  158A  2685   	fcall	_send_config
              120A  158A         
  2888                           	line	380
  2889                           ;PR25.c: 380: }
  2890  0EAC  2EBA               	goto	l182
  2891                           	line	381
  2892                           	
  2893  0EAD                     l180:	
  2894                           	line	383
  2895                           	
  2896  0EAD                     l1568:	
  2897                           ;PR25.c: 381: else
  2898                           ;PR25.c: 382: {
  2899                           ;PR25.c: 383: data=data-20;
  2900  0EAD  0878               	movf	(lcd_goto@data),w
  2901  0EAE  3EEC               	addlw	0ECh
  2902  0EAF  00F7               	movwf	(??_lcd_goto+0)+0
  2903  0EB0  0877               	movf	(??_lcd_goto+0)+0,w
  2904  0EB1  00F8               	movwf	(lcd_goto@data)
  2905                           	line	384
  2906                           	
  2907  0EB2                     l1570:	
  2908                           ;PR25.c: 384: send_config(0xc0+data);
  2909  0EB2  0878               	movf	(lcd_goto@data),w
  2910  0EB3  3EC0               	addlw	0C0h
  2911  0EB4  120A  158A  2685   	fcall	_send_config
              120A  158A         
  2912  0EB9  2EBA               	goto	l182
  2913                           	line	385
  2914                           	
  2915  0EBA                     l181:	
  2916                           	line	386
  2917                           	
  2918  0EBA                     l182:	
  2919  0EBA  0008               	return
  2920                           	opt stack 0
  2921                           GLOBAL	__end_of_lcd_goto
  2922  0EBB                     	__end_of_lcd_goto:
  2923                           	signat	_lcd_goto,4216
  2924                           	global	_send_string
  2925                           
  2926 ;; *************** function _send_string *****************
  2927 ;; Defined at:
  2928 ;;		line 396 in file "PR25.c"
  2929 ;; Parameters:    Size  Location     Type
  2930 ;;  s               1    wreg     PTR const unsigned char 
  2931 ;;		 -> STR_14(16), STR_13(8), STR_12(15), STR_11(8), 
  2932 ;;		 -> STR_10(14), STR_9(15), STR_8(18), STR_7(8), 
  2933 ;;		 -> STR_6(16), STR_5(17), STR_4(14), STR_3(15), 
  2934 ;;		 -> STR_2(10), STR_1(11), 
  2935 ;; Auto vars:     Size  Location     Type
  2936 ;;  s               1    8[COMMON] PTR const unsigned char 
  2937 ;;		 -> STR_14(16), STR_13(8), STR_12(15), STR_11(8), 
  2938 ;;		 -> STR_10(14), STR_9(15), STR_8(18), STR_7(8), 
  2939 ;;		 -> STR_6(16), STR_5(17), STR_4(14), STR_3(15), 
  2940 ;;		 -> STR_2(10), STR_1(11), 
  2941 ;; Return value:  Size  Location     Type
  2942 ;;		None               void
  2943 ;; Registers used:
  2944 ;;		wreg, fsr0l, fsr0h, status,2, status,0, btemp+1, pclath, cstack
  2945 ;; Tracked objects:
  2946 ;;		On entry : 0/0
  2947 ;;		On exit  : 0/0
  2948 ;;		Unchanged: 0/0
  2949 ;; Data sizes:     COMMON   BANK0   BANK1   BANK3   BANK2
  2950 ;;      Params:         0       0       0       0       0
  2951 ;;      Locals:         1       0       0       0       0
  2952 ;;      Temps:          1       0       0       0       0
  2953 ;;      Totals:         2       0       0       0       0
  2954 ;;Total ram usage:        2 bytes
  2955 ;; Hardware stack levels used:    1
  2956 ;; Hardware stack levels required when called:    3
  2957 ;; This function calls:
  2958 ;;		_send_char
  2959 ;; This function is called by:
  2960 ;;		_main
  2961 ;; This function uses a non-reentrant model
  2962 ;;
  2963                           psect	text220,local,class=CODE,delta=2,merge=1
  2964                           global __ptext220
  2965  0EDC                     __ptext220:
  2966                           psect	text220
  2967                           	file	"PR25.c"
  2968                           	line	396
  2969                           	global	__size_of_send_string
  2970  0026                     	__size_of_send_string	equ	__end_of_send_string-_send_string
  2971                           	
  2972  0EDC                     _send_string:	
  2973                           	opt	stack 4
  2974                           ; Regs used in _send_string: [wreg-fsr0h+status,2+status,0+btemp+1+pclath+cstack]
  2975                           ;send_string@s stored from wreg
  2976  0EDC  00F8               	movwf	(send_string@s)
  2977                           	line	397
  2978                           	
  2979  0EDD                     l1572:	
  2980                           ;PR25.c: 397: while (s && *s)send_char (*s++);
  2981  0EDD  2EEF               	goto	l1578
  2982                           	
  2983  0EDE                     l189:	
  2984                           	
  2985  0EDE                     l1574:	
  2986  0EDE  0878               	movf	(send_string@s),w
  2987  0EDF  0084               	movwf	fsr0
  2988  0EE0  120A  118A  2003   	fcall	stringdir
              120A  158A         
  2989  0EE5  120A  158A  266C   	fcall	_send_char
              120A  158A         
  2990                           	
  2991  0EEA                     l1576:	
  2992  0EEA  3001               	movlw	(01h)
  2993  0EEB  00F7               	movwf	(??_send_string+0)+0
  2994  0EEC  0877               	movf	(??_send_string+0)+0,w
  2995  0EED  07F8               	addwf	(send_string@s),f
  2996  0EEE  2EEF               	goto	l1578
  2997                           	
  2998  0EEF                     l188:	
  2999                           	
  3000  0EEF                     l1578:	
  3001  0EEF  0878               	movf	(send_string@s),w
  3002  0EF0  1D03               	skipz
  3003  0EF1  2EF3               	goto	u1050
  3004  0EF2  2F01               	goto	l193
  3005  0EF3                     u1050:
  3006                           	
  3007  0EF3                     l1580:	
  3008  0EF3  0878               	movf	(send_string@s),w
  3009  0EF4  0084               	movwf	fsr0
  3010  0EF5  120A  118A  2003   	fcall	stringdir
              120A  158A         
  3011  0EFA  3800               	iorlw	0
  3012  0EFB  1D03               	skipz
  3013  0EFC  2EFE               	goto	u1061
  3014  0EFD  2EFF               	goto	u1060
  3015  0EFE                     u1061:
  3016  0EFE  2EDE               	goto	l1574
  3017  0EFF                     u1060:
  3018  0EFF  2F01               	goto	l193
  3019                           	
  3020  0F00                     l191:	
  3021  0F00  2F01               	goto	l193
  3022                           	
  3023  0F01                     l192:	
  3024                           	line	398
  3025                           	
  3026  0F01                     l193:	
  3027  0F01  0008               	return
  3028                           	opt stack 0
  3029                           GLOBAL	__end_of_send_string
  3030  0F02                     	__end_of_send_string:
  3031                           	signat	_send_string,4216
  3032                           	global	_send_dec
  3033                           
  3034 ;; *************** function _send_dec *****************
  3035 ;; Defined at:
  3036 ;;		line 314 in file "PR25.c"
  3037 ;; Parameters:    Size  Location     Type
  3038 ;;  data            4    0[BANK0 ] unsigned long 
  3039 ;;  num_dig         1    4[BANK0 ] unsigned char 
  3040 ;; Auto vars:     Size  Location     Type
  3041 ;;		None
  3042 ;; Return value:  Size  Location     Type
  3043 ;;		None               void
  3044 ;; Registers used:
  3045 ;;		wreg, status,2, status,0, btemp+1, pclath, cstack
  3046 ;; Tracked objects:
  3047 ;;		On entry : 0/0
  3048 ;;		On exit  : 0/0
  3049 ;;		Unchanged: 0/0
  3050 ;; Data sizes:     COMMON   BANK0   BANK1   BANK3   BANK2
  3051 ;;      Params:         0       5       0       0       0
  3052 ;;      Locals:         0       0       0       0       0
  3053 ;;      Temps:          0       0       0       0       0
  3054 ;;      Totals:         0       5       0       0       0
  3055 ;;Total ram usage:        5 bytes
  3056 ;; Hardware stack levels used:    1
  3057 ;; Hardware stack levels required when called:    3
  3058 ;; This function calls:
  3059 ;;		___llmod
  3060 ;;		___lldiv
  3061 ;;		_send_char
  3062 ;; This function is called by:
  3063 ;;		_main
  3064 ;; This function uses a non-reentrant model
  3065 ;;
  3066                           psect	text221,local,class=CODE,delta=2,merge=1
  3067                           global __ptext221
  3068  010B                     __ptext221:
  3069                           psect	text221
  3070                           	file	"PR25.c"
  3071                           	line	314
  3072                           	global	__size_of_send_dec
  3073  0292                     	__size_of_send_dec	equ	__end_of_send_dec-_send_dec
  3074                           	
  3075  010B                     _send_dec:	
  3076                           	opt	stack 4
  3077                           ; Regs used in _send_dec: [wreg+status,2+status,0+btemp+1+pclath+cstack]
  3078                           	line	315
  3079                           	
  3080  010B                     l1582:	
  3081                           ;PR25.c: 315: if(num_dig>=10)
  3082  010B  300A               	movlw	(0Ah)
  3083  010C  1283               	bcf	status, 5	;RP0=0, select bank0
  3084  010D  1303               	bcf	status, 6	;RP1=0, select bank0
  3085  010E  0224               	subwf	(send_dec@num_dig),w
  3086  010F  1C03               	skipc
  3087  0110  2912               	goto	u1071
  3088  0111  2913               	goto	u1070
  3089  0112                     u1071:
  3090  0112  294F               	goto	l1588
  3091  0113                     u1070:
  3092                           	line	317
  3093                           	
  3094  0113                     l1584:	
  3095                           ;PR25.c: 316: {
  3096                           ;PR25.c: 317: data=data%10000000000;
  3097  0113  3054               	movlw	054h
  3098  0114  00F3               	movwf	(?___llmod+3)
  3099  0115  300B               	movlw	0Bh
  3100  0116  00F2               	movwf	(?___llmod+2)
  3101  0117  30E4               	movlw	0E4h
  3102  0118  00F1               	movwf	(?___llmod+1)
  3103  0119  3000               	movlw	0
  3104  011A  00F0               	movwf	(?___llmod)
  3105                           
  3106  011B  0823               	movf	(send_dec@data+3),w
  3107  011C  00F7               	movwf	3+(?___llmod)+04h
  3108  011D  0822               	movf	(send_dec@data+2),w
  3109  011E  00F6               	movwf	2+(?___llmod)+04h
  3110  011F  0821               	movf	(send_dec@data+1),w
  3111  0120  00F5               	movwf	1+(?___llmod)+04h
  3112  0121  0820               	movf	(send_dec@data),w
  3113  0122  00F4               	movwf	0+(?___llmod)+04h
  3114                           
  3115  0123  120A  118A  20AF   	fcall	___llmod
              120A  118A         
  3116  0128  0873               	movf	(3+(?___llmod)),w
  3117  0129  1283               	bcf	status, 5	;RP0=0, select bank0
  3118  012A  1303               	bcf	status, 6	;RP1=0, select bank0
  3119  012B  00A3               	movwf	(send_dec@data+3)
  3120  012C  0872               	movf	(2+(?___llmod)),w
  3121  012D  00A2               	movwf	(send_dec@data+2)
  3122  012E  0871               	movf	(1+(?___llmod)),w
  3123  012F  00A1               	movwf	(send_dec@data+1)
  3124  0130  0870               	movf	(0+(?___llmod)),w
  3125  0131  00A0               	movwf	(send_dec@data)
  3126                           
  3127                           	line	318
  3128                           	
  3129  0132                     l1586:	
  3130                           ;PR25.c: 318: send_char(data/1000000000+0x30);
  3131  0132  303B               	movlw	03Bh
  3132  0133  00F3               	movwf	(?___lldiv+3)
  3133  0134  309A               	movlw	09Ah
  3134  0135  00F2               	movwf	(?___lldiv+2)
  3135  0136  30CA               	movlw	0CAh
  3136  0137  00F1               	movwf	(?___lldiv+1)
  3137  0138  3000               	movlw	0
  3138  0139  00F0               	movwf	(?___lldiv)
  3139                           
  3140  013A  0823               	movf	(send_dec@data+3),w
  3141  013B  00F7               	movwf	3+(?___lldiv)+04h
  3142  013C  0822               	movf	(send_dec@data+2),w
  3143  013D  00F6               	movwf	2+(?___lldiv)+04h
  3144  013E  0821               	movf	(send_dec@data+1),w
  3145  013F  00F5               	movwf	1+(?___lldiv)+04h
  3146  0140  0820               	movf	(send_dec@data),w
  3147  0141  00F4               	movwf	0+(?___lldiv)+04h
  3148                           
  3149  0142  120A  158A  2792   	fcall	___lldiv
              120A  118A         
  3150  0147  0870               	movf	0+(((0+(?___lldiv)))),w
  3151  0148  3E30               	addlw	030h
  3152  0149  120A  158A  266C   	fcall	_send_char
              120A  118A         
  3153  014E  294F               	goto	l1588
  3154                           	line	319
  3155                           	
  3156  014F                     l164:	
  3157                           	line	320
  3158                           	
  3159  014F                     l1588:	
  3160                           ;PR25.c: 319: }
  3161                           ;PR25.c: 320: if(num_dig>=9)
  3162  014F  3009               	movlw	(09h)
  3163  0150  1283               	bcf	status, 5	;RP0=0, select bank0
  3164  0151  1303               	bcf	status, 6	;RP1=0, select bank0
  3165  0152  0224               	subwf	(send_dec@num_dig),w
  3166  0153  1C03               	skipc
  3167  0154  2956               	goto	u1081
  3168  0155  2957               	goto	u1080
  3169  0156                     u1081:
  3170  0156  2993               	goto	l1594
  3171  0157                     u1080:
  3172                           	line	322
  3173                           	
  3174  0157                     l1590:	
  3175                           ;PR25.c: 321: {
  3176                           ;PR25.c: 322: data=data%1000000000;
  3177  0157  303B               	movlw	03Bh
  3178  0158  00F3               	movwf	(?___llmod+3)
  3179  0159  309A               	movlw	09Ah
  3180  015A  00F2               	movwf	(?___llmod+2)
  3181  015B  30CA               	movlw	0CAh
  3182  015C  00F1               	movwf	(?___llmod+1)
  3183  015D  3000               	movlw	0
  3184  015E  00F0               	movwf	(?___llmod)
  3185                           
  3186  015F  0823               	movf	(send_dec@data+3),w
  3187  0160  00F7               	movwf	3+(?___llmod)+04h
  3188  0161  0822               	movf	(send_dec@data+2),w
  3189  0162  00F6               	movwf	2+(?___llmod)+04h
  3190  0163  0821               	movf	(send_dec@data+1),w
  3191  0164  00F5               	movwf	1+(?___llmod)+04h
  3192  0165  0820               	movf	(send_dec@data),w
  3193  0166  00F4               	movwf	0+(?___llmod)+04h
  3194                           
  3195  0167  120A  118A  20AF   	fcall	___llmod
              120A  118A         
  3196  016C  0873               	movf	(3+(?___llmod)),w
  3197  016D  1283               	bcf	status, 5	;RP0=0, select bank0
  3198  016E  1303               	bcf	status, 6	;RP1=0, select bank0
  3199  016F  00A3               	movwf	(send_dec@data+3)
  3200  0170  0872               	movf	(2+(?___llmod)),w
  3201  0171  00A2               	movwf	(send_dec@data+2)
  3202  0172  0871               	movf	(1+(?___llmod)),w
  3203  0173  00A1               	movwf	(send_dec@data+1)
  3204  0174  0870               	movf	(0+(?___llmod)),w
  3205  0175  00A0               	movwf	(send_dec@data)
  3206                           
  3207                           	line	323
  3208                           	
  3209  0176                     l1592:	
  3210                           ;PR25.c: 323: send_char(data/100000000+0x30);
  3211  0176  3005               	movlw	05h
  3212  0177  00F3               	movwf	(?___lldiv+3)
  3213  0178  30F5               	movlw	0F5h
  3214  0179  00F2               	movwf	(?___lldiv+2)
  3215  017A  30E1               	movlw	0E1h
  3216  017B  00F1               	movwf	(?___lldiv+1)
  3217  017C  3000               	movlw	0
  3218  017D  00F0               	movwf	(?___lldiv)
  3219                           
  3220  017E  0823               	movf	(send_dec@data+3),w
  3221  017F  00F7               	movwf	3+(?___lldiv)+04h
  3222  0180  0822               	movf	(send_dec@data+2),w
  3223  0181  00F6               	movwf	2+(?___lldiv)+04h
  3224  0182  0821               	movf	(send_dec@data+1),w
  3225  0183  00F5               	movwf	1+(?___lldiv)+04h
  3226  0184  0820               	movf	(send_dec@data),w
  3227  0185  00F4               	movwf	0+(?___lldiv)+04h
  3228                           
  3229  0186  120A  158A  2792   	fcall	___lldiv
              120A  118A         
  3230  018B  0870               	movf	0+(((0+(?___lldiv)))),w
  3231  018C  3E30               	addlw	030h
  3232  018D  120A  158A  266C   	fcall	_send_char
              120A  118A         
  3233  0192  2993               	goto	l1594
  3234                           	line	324
  3235                           	
  3236  0193                     l165:	
  3237                           	line	325
  3238                           	
  3239  0193                     l1594:	
  3240                           ;PR25.c: 324: }
  3241                           ;PR25.c: 325: if(num_dig>=8)
  3242  0193  3008               	movlw	(08h)
  3243  0194  1283               	bcf	status, 5	;RP0=0, select bank0
  3244  0195  1303               	bcf	status, 6	;RP1=0, select bank0
  3245  0196  0224               	subwf	(send_dec@num_dig),w
  3246  0197  1C03               	skipc
  3247  0198  299A               	goto	u1091
  3248  0199  299B               	goto	u1090
  3249  019A                     u1091:
  3250  019A  29D7               	goto	l1600
  3251  019B                     u1090:
  3252                           	line	327
  3253                           	
  3254  019B                     l1596:	
  3255                           ;PR25.c: 326: {
  3256                           ;PR25.c: 327: data=data%100000000;
  3257  019B  3005               	movlw	05h
  3258  019C  00F3               	movwf	(?___llmod+3)
  3259  019D  30F5               	movlw	0F5h
  3260  019E  00F2               	movwf	(?___llmod+2)
  3261  019F  30E1               	movlw	0E1h
  3262  01A0  00F1               	movwf	(?___llmod+1)
  3263  01A1  3000               	movlw	0
  3264  01A2  00F0               	movwf	(?___llmod)
  3265                           
  3266  01A3  0823               	movf	(send_dec@data+3),w
  3267  01A4  00F7               	movwf	3+(?___llmod)+04h
  3268  01A5  0822               	movf	(send_dec@data+2),w
  3269  01A6  00F6               	movwf	2+(?___llmod)+04h
  3270  01A7  0821               	movf	(send_dec@data+1),w
  3271  01A8  00F5               	movwf	1+(?___llmod)+04h
  3272  01A9  0820               	movf	(send_dec@data),w
  3273  01AA  00F4               	movwf	0+(?___llmod)+04h
  3274                           
  3275  01AB  120A  118A  20AF   	fcall	___llmod
              120A  118A         
  3276  01B0  0873               	movf	(3+(?___llmod)),w
  3277  01B1  1283               	bcf	status, 5	;RP0=0, select bank0
  3278  01B2  1303               	bcf	status, 6	;RP1=0, select bank0
  3279  01B3  00A3               	movwf	(send_dec@data+3)
  3280  01B4  0872               	movf	(2+(?___llmod)),w
  3281  01B5  00A2               	movwf	(send_dec@data+2)
  3282  01B6  0871               	movf	(1+(?___llmod)),w
  3283  01B7  00A1               	movwf	(send_dec@data+1)
  3284  01B8  0870               	movf	(0+(?___llmod)),w
  3285  01B9  00A0               	movwf	(send_dec@data)
  3286                           
  3287                           	line	328
  3288                           	
  3289  01BA                     l1598:	
  3290                           ;PR25.c: 328: send_char(data/10000000+0x30);
  3291  01BA  3000               	movlw	0
  3292  01BB  00F3               	movwf	(?___lldiv+3)
  3293  01BC  3098               	movlw	098h
  3294  01BD  00F2               	movwf	(?___lldiv+2)
  3295  01BE  3096               	movlw	096h
  3296  01BF  00F1               	movwf	(?___lldiv+1)
  3297  01C0  3080               	movlw	080h
  3298  01C1  00F0               	movwf	(?___lldiv)
  3299                           
  3300  01C2  0823               	movf	(send_dec@data+3),w
  3301  01C3  00F7               	movwf	3+(?___lldiv)+04h
  3302  01C4  0822               	movf	(send_dec@data+2),w
  3303  01C5  00F6               	movwf	2+(?___lldiv)+04h
  3304  01C6  0821               	movf	(send_dec@data+1),w
  3305  01C7  00F5               	movwf	1+(?___lldiv)+04h
  3306  01C8  0820               	movf	(send_dec@data),w
  3307  01C9  00F4               	movwf	0+(?___lldiv)+04h
  3308                           
  3309  01CA  120A  158A  2792   	fcall	___lldiv
              120A  118A         
  3310  01CF  0870               	movf	0+(((0+(?___lldiv)))),w
  3311  01D0  3E30               	addlw	030h
  3312  01D1  120A  158A  266C   	fcall	_send_char
              120A  118A         
  3313  01D6  29D7               	goto	l1600
  3314                           	line	329
  3315                           	
  3316  01D7                     l166:	
  3317                           	line	330
  3318                           	
  3319  01D7                     l1600:	
  3320                           ;PR25.c: 329: }
  3321                           ;PR25.c: 330: if(num_dig>=7)
  3322  01D7  3007               	movlw	(07h)
  3323  01D8  1283               	bcf	status, 5	;RP0=0, select bank0
  3324  01D9  1303               	bcf	status, 6	;RP1=0, select bank0
  3325  01DA  0224               	subwf	(send_dec@num_dig),w
  3326  01DB  1C03               	skipc
  3327  01DC  29DE               	goto	u1101
  3328  01DD  29DF               	goto	u1100
  3329  01DE                     u1101:
  3330  01DE  2A1B               	goto	l1606
  3331  01DF                     u1100:
  3332                           	line	332
  3333                           	
  3334  01DF                     l1602:	
  3335                           ;PR25.c: 331: {
  3336                           ;PR25.c: 332: data=data%10000000;
  3337  01DF  3000               	movlw	0
  3338  01E0  00F3               	movwf	(?___llmod+3)
  3339  01E1  3098               	movlw	098h
  3340  01E2  00F2               	movwf	(?___llmod+2)
  3341  01E3  3096               	movlw	096h
  3342  01E4  00F1               	movwf	(?___llmod+1)
  3343  01E5  3080               	movlw	080h
  3344  01E6  00F0               	movwf	(?___llmod)
  3345                           
  3346  01E7  0823               	movf	(send_dec@data+3),w
  3347  01E8  00F7               	movwf	3+(?___llmod)+04h
  3348  01E9  0822               	movf	(send_dec@data+2),w
  3349  01EA  00F6               	movwf	2+(?___llmod)+04h
  3350  01EB  0821               	movf	(send_dec@data+1),w
  3351  01EC  00F5               	movwf	1+(?___llmod)+04h
  3352  01ED  0820               	movf	(send_dec@data),w
  3353  01EE  00F4               	movwf	0+(?___llmod)+04h
  3354                           
  3355  01EF  120A  118A  20AF   	fcall	___llmod
              120A  118A         
  3356  01F4  0873               	movf	(3+(?___llmod)),w
  3357  01F5  1283               	bcf	status, 5	;RP0=0, select bank0
  3358  01F6  1303               	bcf	status, 6	;RP1=0, select bank0
  3359  01F7  00A3               	movwf	(send_dec@data+3)
  3360  01F8  0872               	movf	(2+(?___llmod)),w
  3361  01F9  00A2               	movwf	(send_dec@data+2)
  3362  01FA  0871               	movf	(1+(?___llmod)),w
  3363  01FB  00A1               	movwf	(send_dec@data+1)
  3364  01FC  0870               	movf	(0+(?___llmod)),w
  3365  01FD  00A0               	movwf	(send_dec@data)
  3366                           
  3367                           	line	333
  3368                           	
  3369  01FE                     l1604:	
  3370                           ;PR25.c: 333: send_char(data/1000000+0x30);
  3371  01FE  3000               	movlw	0
  3372  01FF  00F3               	movwf	(?___lldiv+3)
  3373  0200  300F               	movlw	0Fh
  3374  0201  00F2               	movwf	(?___lldiv+2)
  3375  0202  3042               	movlw	042h
  3376  0203  00F1               	movwf	(?___lldiv+1)
  3377  0204  3040               	movlw	040h
  3378  0205  00F0               	movwf	(?___lldiv)
  3379                           
  3380  0206  0823               	movf	(send_dec@data+3),w
  3381  0207  00F7               	movwf	3+(?___lldiv)+04h
  3382  0208  0822               	movf	(send_dec@data+2),w
  3383  0209  00F6               	movwf	2+(?___lldiv)+04h
  3384  020A  0821               	movf	(send_dec@data+1),w
  3385  020B  00F5               	movwf	1+(?___lldiv)+04h
  3386  020C  0820               	movf	(send_dec@data),w
  3387  020D  00F4               	movwf	0+(?___lldiv)+04h
  3388                           
  3389  020E  120A  158A  2792   	fcall	___lldiv
              120A  118A         
  3390  0213  0870               	movf	0+(((0+(?___lldiv)))),w
  3391  0214  3E30               	addlw	030h
  3392  0215  120A  158A  266C   	fcall	_send_char
              120A  118A         
  3393  021A  2A1B               	goto	l1606
  3394                           	line	334
  3395                           	
  3396  021B                     l167:	
  3397                           	line	335
  3398                           	
  3399  021B                     l1606:	
  3400                           ;PR25.c: 334: }
  3401                           ;PR25.c: 335: if(num_dig>=6)
  3402  021B  3006               	movlw	(06h)
  3403  021C  1283               	bcf	status, 5	;RP0=0, select bank0
  3404  021D  1303               	bcf	status, 6	;RP1=0, select bank0
  3405  021E  0224               	subwf	(send_dec@num_dig),w
  3406  021F  1C03               	skipc
  3407  0220  2A22               	goto	u1111
  3408  0221  2A23               	goto	u1110
  3409  0222                     u1111:
  3410  0222  2A5F               	goto	l1612
  3411  0223                     u1110:
  3412                           	line	337
  3413                           	
  3414  0223                     l1608:	
  3415                           ;PR25.c: 336: {
  3416                           ;PR25.c: 337: data=data%1000000;
  3417  0223  3000               	movlw	0
  3418  0224  00F3               	movwf	(?___llmod+3)
  3419  0225  300F               	movlw	0Fh
  3420  0226  00F2               	movwf	(?___llmod+2)
  3421  0227  3042               	movlw	042h
  3422  0228  00F1               	movwf	(?___llmod+1)
  3423  0229  3040               	movlw	040h
  3424  022A  00F0               	movwf	(?___llmod)
  3425                           
  3426  022B  0823               	movf	(send_dec@data+3),w
  3427  022C  00F7               	movwf	3+(?___llmod)+04h
  3428  022D  0822               	movf	(send_dec@data+2),w
  3429  022E  00F6               	movwf	2+(?___llmod)+04h
  3430  022F  0821               	movf	(send_dec@data+1),w
  3431  0230  00F5               	movwf	1+(?___llmod)+04h
  3432  0231  0820               	movf	(send_dec@data),w
  3433  0232  00F4               	movwf	0+(?___llmod)+04h
  3434                           
  3435  0233  120A  118A  20AF   	fcall	___llmod
              120A  118A         
  3436  0238  0873               	movf	(3+(?___llmod)),w
  3437  0239  1283               	bcf	status, 5	;RP0=0, select bank0
  3438  023A  1303               	bcf	status, 6	;RP1=0, select bank0
  3439  023B  00A3               	movwf	(send_dec@data+3)
  3440  023C  0872               	movf	(2+(?___llmod)),w
  3441  023D  00A2               	movwf	(send_dec@data+2)
  3442  023E  0871               	movf	(1+(?___llmod)),w
  3443  023F  00A1               	movwf	(send_dec@data+1)
  3444  0240  0870               	movf	(0+(?___llmod)),w
  3445  0241  00A0               	movwf	(send_dec@data)
  3446                           
  3447                           	line	338
  3448                           	
  3449  0242                     l1610:	
  3450                           ;PR25.c: 338: send_char(data/100000+0x30);
  3451  0242  3000               	movlw	0
  3452  0243  00F3               	movwf	(?___lldiv+3)
  3453  0244  3001               	movlw	01h
  3454  0245  00F2               	movwf	(?___lldiv+2)
  3455  0246  3086               	movlw	086h
  3456  0247  00F1               	movwf	(?___lldiv+1)
  3457  0248  30A0               	movlw	0A0h
  3458  0249  00F0               	movwf	(?___lldiv)
  3459                           
  3460  024A  0823               	movf	(send_dec@data+3),w
  3461  024B  00F7               	movwf	3+(?___lldiv)+04h
  3462  024C  0822               	movf	(send_dec@data+2),w
  3463  024D  00F6               	movwf	2+(?___lldiv)+04h
  3464  024E  0821               	movf	(send_dec@data+1),w
  3465  024F  00F5               	movwf	1+(?___lldiv)+04h
  3466  0250  0820               	movf	(send_dec@data),w
  3467  0251  00F4               	movwf	0+(?___lldiv)+04h
  3468                           
  3469  0252  120A  158A  2792   	fcall	___lldiv
              120A  118A         
  3470  0257  0870               	movf	0+(((0+(?___lldiv)))),w
  3471  0258  3E30               	addlw	030h
  3472  0259  120A  158A  266C   	fcall	_send_char
              120A  118A         
  3473  025E  2A5F               	goto	l1612
  3474                           	line	339
  3475                           	
  3476  025F                     l168:	
  3477                           	line	340
  3478                           	
  3479  025F                     l1612:	
  3480                           ;PR25.c: 339: }
  3481                           ;PR25.c: 340: if(num_dig>=5)
  3482  025F  3005               	movlw	(05h)
  3483  0260  1283               	bcf	status, 5	;RP0=0, select bank0
  3484  0261  1303               	bcf	status, 6	;RP1=0, select bank0
  3485  0262  0224               	subwf	(send_dec@num_dig),w
  3486  0263  1C03               	skipc
  3487  0264  2A66               	goto	u1121
  3488  0265  2A67               	goto	u1120
  3489  0266                     u1121:
  3490  0266  2AA3               	goto	l1618
  3491  0267                     u1120:
  3492                           	line	342
  3493                           	
  3494  0267                     l1614:	
  3495                           ;PR25.c: 341: {
  3496                           ;PR25.c: 342: data=data%100000;
  3497  0267  3000               	movlw	0
  3498  0268  00F3               	movwf	(?___llmod+3)
  3499  0269  3001               	movlw	01h
  3500  026A  00F2               	movwf	(?___llmod+2)
  3501  026B  3086               	movlw	086h
  3502  026C  00F1               	movwf	(?___llmod+1)
  3503  026D  30A0               	movlw	0A0h
  3504  026E  00F0               	movwf	(?___llmod)
  3505                           
  3506  026F  0823               	movf	(send_dec@data+3),w
  3507  0270  00F7               	movwf	3+(?___llmod)+04h
  3508  0271  0822               	movf	(send_dec@data+2),w
  3509  0272  00F6               	movwf	2+(?___llmod)+04h
  3510  0273  0821               	movf	(send_dec@data+1),w
  3511  0274  00F5               	movwf	1+(?___llmod)+04h
  3512  0275  0820               	movf	(send_dec@data),w
  3513  0276  00F4               	movwf	0+(?___llmod)+04h
  3514                           
  3515  0277  120A  118A  20AF   	fcall	___llmod
              120A  118A         
  3516  027C  0873               	movf	(3+(?___llmod)),w
  3517  027D  1283               	bcf	status, 5	;RP0=0, select bank0
  3518  027E  1303               	bcf	status, 6	;RP1=0, select bank0
  3519  027F  00A3               	movwf	(send_dec@data+3)
  3520  0280  0872               	movf	(2+(?___llmod)),w
  3521  0281  00A2               	movwf	(send_dec@data+2)
  3522  0282  0871               	movf	(1+(?___llmod)),w
  3523  0283  00A1               	movwf	(send_dec@data+1)
  3524  0284  0870               	movf	(0+(?___llmod)),w
  3525  0285  00A0               	movwf	(send_dec@data)
  3526                           
  3527                           	line	343
  3528                           	
  3529  0286                     l1616:	
  3530                           ;PR25.c: 343: send_char(data/10000+0x30);
  3531  0286  3000               	movlw	0
  3532  0287  00F3               	movwf	(?___lldiv+3)
  3533  0288  3000               	movlw	0
  3534  0289  00F2               	movwf	(?___lldiv+2)
  3535  028A  3027               	movlw	027h
  3536  028B  00F1               	movwf	(?___lldiv+1)
  3537  028C  3010               	movlw	010h
  3538  028D  00F0               	movwf	(?___lldiv)
  3539                           
  3540  028E  0823               	movf	(send_dec@data+3),w
  3541  028F  00F7               	movwf	3+(?___lldiv)+04h
  3542  0290  0822               	movf	(send_dec@data+2),w
  3543  0291  00F6               	movwf	2+(?___lldiv)+04h
  3544  0292  0821               	movf	(send_dec@data+1),w
  3545  0293  00F5               	movwf	1+(?___lldiv)+04h
  3546  0294  0820               	movf	(send_dec@data),w
  3547  0295  00F4               	movwf	0+(?___lldiv)+04h
  3548                           
  3549  0296  120A  158A  2792   	fcall	___lldiv
              120A  118A         
  3550  029B  0870               	movf	0+(((0+(?___lldiv)))),w
  3551  029C  3E30               	addlw	030h
  3552  029D  120A  158A  266C   	fcall	_send_char
              120A  118A         
  3553  02A2  2AA3               	goto	l1618
  3554                           	line	344
  3555                           	
  3556  02A3                     l169:	
  3557                           	line	345
  3558                           	
  3559  02A3                     l1618:	
  3560                           ;PR25.c: 344: }
  3561                           ;PR25.c: 345: if(num_dig>=4)
  3562  02A3  3004               	movlw	(04h)
  3563  02A4  1283               	bcf	status, 5	;RP0=0, select bank0
  3564  02A5  1303               	bcf	status, 6	;RP1=0, select bank0
  3565  02A6  0224               	subwf	(send_dec@num_dig),w
  3566  02A7  1C03               	skipc
  3567  02A8  2AAA               	goto	u1131
  3568  02A9  2AAB               	goto	u1130
  3569  02AA                     u1131:
  3570  02AA  2AE7               	goto	l1624
  3571  02AB                     u1130:
  3572                           	line	347
  3573                           	
  3574  02AB                     l1620:	
  3575                           ;PR25.c: 346: {
  3576                           ;PR25.c: 347: data=data%10000;
  3577  02AB  3000               	movlw	0
  3578  02AC  00F3               	movwf	(?___llmod+3)
  3579  02AD  3000               	movlw	0
  3580  02AE  00F2               	movwf	(?___llmod+2)
  3581  02AF  3027               	movlw	027h
  3582  02B0  00F1               	movwf	(?___llmod+1)
  3583  02B1  3010               	movlw	010h
  3584  02B2  00F0               	movwf	(?___llmod)
  3585                           
  3586  02B3  0823               	movf	(send_dec@data+3),w
  3587  02B4  00F7               	movwf	3+(?___llmod)+04h
  3588  02B5  0822               	movf	(send_dec@data+2),w
  3589  02B6  00F6               	movwf	2+(?___llmod)+04h
  3590  02B7  0821               	movf	(send_dec@data+1),w
  3591  02B8  00F5               	movwf	1+(?___llmod)+04h
  3592  02B9  0820               	movf	(send_dec@data),w
  3593  02BA  00F4               	movwf	0+(?___llmod)+04h
  3594                           
  3595  02BB  120A  118A  20AF   	fcall	___llmod
              120A  118A         
  3596  02C0  0873               	movf	(3+(?___llmod)),w
  3597  02C1  1283               	bcf	status, 5	;RP0=0, select bank0
  3598  02C2  1303               	bcf	status, 6	;RP1=0, select bank0
  3599  02C3  00A3               	movwf	(send_dec@data+3)
  3600  02C4  0872               	movf	(2+(?___llmod)),w
  3601  02C5  00A2               	movwf	(send_dec@data+2)
  3602  02C6  0871               	movf	(1+(?___llmod)),w
  3603  02C7  00A1               	movwf	(send_dec@data+1)
  3604  02C8  0870               	movf	(0+(?___llmod)),w
  3605  02C9  00A0               	movwf	(send_dec@data)
  3606                           
  3607                           	line	348
  3608                           	
  3609  02CA                     l1622:	
  3610                           ;PR25.c: 348: send_char(data/1000+0x30);
  3611  02CA  3000               	movlw	0
  3612  02CB  00F3               	movwf	(?___lldiv+3)
  3613  02CC  3000               	movlw	0
  3614  02CD  00F2               	movwf	(?___lldiv+2)
  3615  02CE  3003               	movlw	03h
  3616  02CF  00F1               	movwf	(?___lldiv+1)
  3617  02D0  30E8               	movlw	0E8h
  3618  02D1  00F0               	movwf	(?___lldiv)
  3619                           
  3620  02D2  0823               	movf	(send_dec@data+3),w
  3621  02D3  00F7               	movwf	3+(?___lldiv)+04h
  3622  02D4  0822               	movf	(send_dec@data+2),w
  3623  02D5  00F6               	movwf	2+(?___lldiv)+04h
  3624  02D6  0821               	movf	(send_dec@data+1),w
  3625  02D7  00F5               	movwf	1+(?___lldiv)+04h
  3626  02D8  0820               	movf	(send_dec@data),w
  3627  02D9  00F4               	movwf	0+(?___lldiv)+04h
  3628                           
  3629  02DA  120A  158A  2792   	fcall	___lldiv
              120A  118A         
  3630  02DF  0870               	movf	0+(((0+(?___lldiv)))),w
  3631  02E0  3E30               	addlw	030h
  3632  02E1  120A  158A  266C   	fcall	_send_char
              120A  118A         
  3633  02E6  2AE7               	goto	l1624
  3634                           	line	349
  3635                           	
  3636  02E7                     l170:	
  3637                           	line	350
  3638                           	
  3639  02E7                     l1624:	
  3640                           ;PR25.c: 349: }
  3641                           ;PR25.c: 350: if(num_dig>=3)
  3642  02E7  3003               	movlw	(03h)
  3643  02E8  1283               	bcf	status, 5	;RP0=0, select bank0
  3644  02E9  1303               	bcf	status, 6	;RP1=0, select bank0
  3645  02EA  0224               	subwf	(send_dec@num_dig),w
  3646  02EB  1C03               	skipc
  3647  02EC  2AEE               	goto	u1141
  3648  02ED  2AEF               	goto	u1140
  3649  02EE                     u1141:
  3650  02EE  2B2B               	goto	l1630
  3651  02EF                     u1140:
  3652                           	line	352
  3653                           	
  3654  02EF                     l1626:	
  3655                           ;PR25.c: 351: {
  3656                           ;PR25.c: 352: data=data%1000;
  3657  02EF  3000               	movlw	0
  3658  02F0  00F3               	movwf	(?___llmod+3)
  3659  02F1  3000               	movlw	0
  3660  02F2  00F2               	movwf	(?___llmod+2)
  3661  02F3  3003               	movlw	03h
  3662  02F4  00F1               	movwf	(?___llmod+1)
  3663  02F5  30E8               	movlw	0E8h
  3664  02F6  00F0               	movwf	(?___llmod)
  3665                           
  3666  02F7  0823               	movf	(send_dec@data+3),w
  3667  02F8  00F7               	movwf	3+(?___llmod)+04h
  3668  02F9  0822               	movf	(send_dec@data+2),w
  3669  02FA  00F6               	movwf	2+(?___llmod)+04h
  3670  02FB  0821               	movf	(send_dec@data+1),w
  3671  02FC  00F5               	movwf	1+(?___llmod)+04h
  3672  02FD  0820               	movf	(send_dec@data),w
  3673  02FE  00F4               	movwf	0+(?___llmod)+04h
  3674                           
  3675  02FF  120A  118A  20AF   	fcall	___llmod
              120A  118A         
  3676  0304  0873               	movf	(3+(?___llmod)),w
  3677  0305  1283               	bcf	status, 5	;RP0=0, select bank0
  3678  0306  1303               	bcf	status, 6	;RP1=0, select bank0
  3679  0307  00A3               	movwf	(send_dec@data+3)
  3680  0308  0872               	movf	(2+(?___llmod)),w
  3681  0309  00A2               	movwf	(send_dec@data+2)
  3682  030A  0871               	movf	(1+(?___llmod)),w
  3683  030B  00A1               	movwf	(send_dec@data+1)
  3684  030C  0870               	movf	(0+(?___llmod)),w
  3685  030D  00A0               	movwf	(send_dec@data)
  3686                           
  3687                           	line	353
  3688                           	
  3689  030E                     l1628:	
  3690                           ;PR25.c: 353: send_char(data/100+0x30);
  3691  030E  3000               	movlw	0
  3692  030F  00F3               	movwf	(?___lldiv+3)
  3693  0310  3000               	movlw	0
  3694  0311  00F2               	movwf	(?___lldiv+2)
  3695  0312  3000               	movlw	0
  3696  0313  00F1               	movwf	(?___lldiv+1)
  3697  0314  3064               	movlw	064h
  3698  0315  00F0               	movwf	(?___lldiv)
  3699                           
  3700  0316  0823               	movf	(send_dec@data+3),w
  3701  0317  00F7               	movwf	3+(?___lldiv)+04h
  3702  0318  0822               	movf	(send_dec@data+2),w
  3703  0319  00F6               	movwf	2+(?___lldiv)+04h
  3704  031A  0821               	movf	(send_dec@data+1),w
  3705  031B  00F5               	movwf	1+(?___lldiv)+04h
  3706  031C  0820               	movf	(send_dec@data),w
  3707  031D  00F4               	movwf	0+(?___lldiv)+04h
  3708                           
  3709  031E  120A  158A  2792   	fcall	___lldiv
              120A  118A         
  3710  0323  0870               	movf	0+(((0+(?___lldiv)))),w
  3711  0324  3E30               	addlw	030h
  3712  0325  120A  158A  266C   	fcall	_send_char
              120A  118A         
  3713  032A  2B2B               	goto	l1630
  3714                           	line	354
  3715                           	
  3716  032B                     l171:	
  3717                           	line	355
  3718                           	
  3719  032B                     l1630:	
  3720                           ;PR25.c: 354: }
  3721                           ;PR25.c: 355: if(num_dig>=2)
  3722  032B  3002               	movlw	(02h)
  3723  032C  1283               	bcf	status, 5	;RP0=0, select bank0
  3724  032D  1303               	bcf	status, 6	;RP1=0, select bank0
  3725  032E  0224               	subwf	(send_dec@num_dig),w
  3726  032F  1C03               	skipc
  3727  0330  2B32               	goto	u1151
  3728  0331  2B33               	goto	u1150
  3729  0332                     u1151:
  3730  0332  2B6F               	goto	l1636
  3731  0333                     u1150:
  3732                           	line	357
  3733                           	
  3734  0333                     l1632:	
  3735                           ;PR25.c: 356: {
  3736                           ;PR25.c: 357: data=data%100;
  3737  0333  3000               	movlw	0
  3738  0334  00F3               	movwf	(?___llmod+3)
  3739  0335  3000               	movlw	0
  3740  0336  00F2               	movwf	(?___llmod+2)
  3741  0337  3000               	movlw	0
  3742  0338  00F1               	movwf	(?___llmod+1)
  3743  0339  3064               	movlw	064h
  3744  033A  00F0               	movwf	(?___llmod)
  3745                           
  3746  033B  0823               	movf	(send_dec@data+3),w
  3747  033C  00F7               	movwf	3+(?___llmod)+04h
  3748  033D  0822               	movf	(send_dec@data+2),w
  3749  033E  00F6               	movwf	2+(?___llmod)+04h
  3750  033F  0821               	movf	(send_dec@data+1),w
  3751  0340  00F5               	movwf	1+(?___llmod)+04h
  3752  0341  0820               	movf	(send_dec@data),w
  3753  0342  00F4               	movwf	0+(?___llmod)+04h
  3754                           
  3755  0343  120A  118A  20AF   	fcall	___llmod
              120A  118A         
  3756  0348  0873               	movf	(3+(?___llmod)),w
  3757  0349  1283               	bcf	status, 5	;RP0=0, select bank0
  3758  034A  1303               	bcf	status, 6	;RP1=0, select bank0
  3759  034B  00A3               	movwf	(send_dec@data+3)
  3760  034C  0872               	movf	(2+(?___llmod)),w
  3761  034D  00A2               	movwf	(send_dec@data+2)
  3762  034E  0871               	movf	(1+(?___llmod)),w
  3763  034F  00A1               	movwf	(send_dec@data+1)
  3764  0350  0870               	movf	(0+(?___llmod)),w
  3765  0351  00A0               	movwf	(send_dec@data)
  3766                           
  3767                           	line	358
  3768                           	
  3769  0352                     l1634:	
  3770                           ;PR25.c: 358: send_char(data/10+0x30);
  3771  0352  3000               	movlw	0
  3772  0353  00F3               	movwf	(?___lldiv+3)
  3773  0354  3000               	movlw	0
  3774  0355  00F2               	movwf	(?___lldiv+2)
  3775  0356  3000               	movlw	0
  3776  0357  00F1               	movwf	(?___lldiv+1)
  3777  0358  300A               	movlw	0Ah
  3778  0359  00F0               	movwf	(?___lldiv)
  3779                           
  3780  035A  0823               	movf	(send_dec@data+3),w
  3781  035B  00F7               	movwf	3+(?___lldiv)+04h
  3782  035C  0822               	movf	(send_dec@data+2),w
  3783  035D  00F6               	movwf	2+(?___lldiv)+04h
  3784  035E  0821               	movf	(send_dec@data+1),w
  3785  035F  00F5               	movwf	1+(?___lldiv)+04h
  3786  0360  0820               	movf	(send_dec@data),w
  3787  0361  00F4               	movwf	0+(?___lldiv)+04h
  3788                           
  3789  0362  120A  158A  2792   	fcall	___lldiv
              120A  118A         
  3790  0367  0870               	movf	0+(((0+(?___lldiv)))),w
  3791  0368  3E30               	addlw	030h
  3792  0369  120A  158A  266C   	fcall	_send_char
              120A  118A         
  3793  036E  2B6F               	goto	l1636
  3794                           	line	359
  3795                           	
  3796  036F                     l172:	
  3797                           	line	360
  3798                           	
  3799  036F                     l1636:	
  3800                           ;PR25.c: 359: }
  3801                           ;PR25.c: 360: if(num_dig>=1)
  3802  036F  1283               	bcf	status, 5	;RP0=0, select bank0
  3803  0370  1303               	bcf	status, 6	;RP1=0, select bank0
  3804  0371  0824               	movf	(send_dec@num_dig),w
  3805  0372  1D03               	skipz
  3806  0373  2B75               	goto	u1160
  3807  0374  2B9C               	goto	l174
  3808  0375                     u1160:
  3809                           	line	362
  3810                           	
  3811  0375                     l1638:	
  3812                           ;PR25.c: 361: {
  3813                           ;PR25.c: 362: data=data%10;
  3814  0375  3000               	movlw	0
  3815  0376  00F3               	movwf	(?___llmod+3)
  3816  0377  3000               	movlw	0
  3817  0378  00F2               	movwf	(?___llmod+2)
  3818  0379  3000               	movlw	0
  3819  037A  00F1               	movwf	(?___llmod+1)
  3820  037B  300A               	movlw	0Ah
  3821  037C  00F0               	movwf	(?___llmod)
  3822                           
  3823  037D  0823               	movf	(send_dec@data+3),w
  3824  037E  00F7               	movwf	3+(?___llmod)+04h
  3825  037F  0822               	movf	(send_dec@data+2),w
  3826  0380  00F6               	movwf	2+(?___llmod)+04h
  3827  0381  0821               	movf	(send_dec@data+1),w
  3828  0382  00F5               	movwf	1+(?___llmod)+04h
  3829  0383  0820               	movf	(send_dec@data),w
  3830  0384  00F4               	movwf	0+(?___llmod)+04h
  3831                           
  3832  0385  120A  118A  20AF   	fcall	___llmod
              120A  118A         
  3833  038A  0873               	movf	(3+(?___llmod)),w
  3834  038B  1283               	bcf	status, 5	;RP0=0, select bank0
  3835  038C  1303               	bcf	status, 6	;RP1=0, select bank0
  3836  038D  00A3               	movwf	(send_dec@data+3)
  3837  038E  0872               	movf	(2+(?___llmod)),w
  3838  038F  00A2               	movwf	(send_dec@data+2)
  3839  0390  0871               	movf	(1+(?___llmod)),w
  3840  0391  00A1               	movwf	(send_dec@data+1)
  3841  0392  0870               	movf	(0+(?___llmod)),w
  3842  0393  00A0               	movwf	(send_dec@data)
  3843                           
  3844                           	line	363
  3845                           	
  3846  0394                     l1640:	
  3847                           ;PR25.c: 363: send_char(data+0x30);
  3848  0394  0820               	movf	(send_dec@data),w
  3849  0395  3E30               	addlw	030h
  3850  0396  120A  158A  266C   	fcall	_send_char
              120A  118A         
  3851  039B  2B9C               	goto	l174
  3852                           	line	364
  3853                           	
  3854  039C                     l173:	
  3855                           	line	365
  3856                           	
  3857  039C                     l174:	
  3858  039C  0008               	return
  3859                           	opt stack 0
  3860                           GLOBAL	__end_of_send_dec
  3861  039D                     	__end_of_send_dec:
  3862                           	signat	_send_dec,8312
  3863                           	global	_send_config
  3864                           
  3865 ;; *************** function _send_config *****************
  3866 ;; Defined at:
  3867 ;;		line 298 in file "PR25.c"
  3868 ;; Parameters:    Size  Location     Type
  3869 ;;  data            1    wreg     unsigned char 
  3870 ;; Auto vars:     Size  Location     Type
  3871 ;;  data            1    6[COMMON] unsigned char 
  3872 ;; Return value:  Size  Location     Type
  3873 ;;		None               void
  3874 ;; Registers used:
  3875 ;;		wreg, status,2, status,0, btemp+1, pclath, cstack
  3876 ;; Tracked objects:
  3877 ;;		On entry : 0/0
  3878 ;;		On exit  : 0/0
  3879 ;;		Unchanged: 0/0
  3880 ;; Data sizes:     COMMON   BANK0   BANK1   BANK3   BANK2
  3881 ;;      Params:         0       0       0       0       0
  3882 ;;      Locals:         1       0       0       0       0
  3883 ;;      Temps:          0       0       0       0       0
  3884 ;;      Totals:         1       0       0       0       0
  3885 ;;Total ram usage:        1 bytes
  3886 ;; Hardware stack levels used:    1
  3887 ;; Hardware stack levels required when called:    2
  3888 ;; This function calls:
  3889 ;;		_delay
  3890 ;;		_e_pulse
  3891 ;; This function is called by:
  3892 ;;		_init
  3893 ;;		_lcd_goto
  3894 ;;		_lcd_clr
  3895 ;; This function uses a non-reentrant model
  3896 ;;
  3897                           psect	text222,local,class=CODE,delta=2,merge=1
  3898                           global __ptext222
  3899  0E85                     __ptext222:
  3900                           psect	text222
  3901                           	file	"PR25.c"
  3902                           	line	298
  3903                           	global	__size_of_send_config
  3904  0019                     	__size_of_send_config	equ	__end_of_send_config-_send_config
  3905                           	
  3906  0E85                     _send_config:	
  3907                           	opt	stack 4
  3908                           ; Regs used in _send_config: [wreg+status,2+status,0+btemp+1+pclath+cstack]
  3909                           ;send_config@data stored from wreg
  3910  0E85  00F6               	movwf	(send_config@data)
  3911                           	line	299
  3912                           	
  3913  0E86                     l1522:	
  3914                           ;PR25.c: 299: RA0=0;
  3915  0E86  1283               	bcf	status, 5	;RP0=0, select bank0
  3916  0E87  1303               	bcf	status, 6	;RP1=0, select bank0
  3917  0E88  1005               	bcf	(40/8),(40)&7	;volatile
  3918                           	line	300
  3919                           	
  3920  0E89                     l1524:	
  3921                           ;PR25.c: 300: PORTB=data;
  3922  0E89  0876               	movf	(send_config@data),w
  3923  0E8A  0086               	movwf	(6)	;volatile
  3924                           	line	301
  3925                           	
  3926  0E8B                     l1526:	
  3927                           ;PR25.c: 301: delay(400);
  3928  0E8B  3000               	movlw	0
  3929  0E8C  00F3               	movwf	(?_delay+3)
  3930  0E8D  3000               	movlw	0
  3931  0E8E  00F2               	movwf	(?_delay+2)
  3932  0E8F  3001               	movlw	01h
  3933  0E90  00F1               	movwf	(?_delay+1)
  3934  0E91  3090               	movlw	090h
  3935  0E92  00F0               	movwf	(?_delay)
  3936                           
  3937  0E93  120A  158A  2702   	fcall	_delay
              120A  158A         
  3938                           	line	302
  3939                           	
  3940  0E98                     l1528:	
  3941                           ;PR25.c: 302: e_pulse();
  3942  0E98  120A  158A  26BB   	fcall	_e_pulse
              120A  158A         
  3943                           	line	303
  3944                           	
  3945  0E9D                     l158:	
  3946  0E9D  0008               	return
  3947                           	opt stack 0
  3948                           GLOBAL	__end_of_send_config
  3949  0E9E                     	__end_of_send_config:
  3950                           	signat	_send_config,4216
  3951                           	global	_send_char
  3952                           
  3953 ;; *************** function _send_char *****************
  3954 ;; Defined at:
  3955 ;;		line 306 in file "PR25.c"
  3956 ;; Parameters:    Size  Location     Type
  3957 ;;  data            1    wreg     unsigned char 
  3958 ;; Auto vars:     Size  Location     Type
  3959 ;;  data            1    6[COMMON] unsigned char 
  3960 ;; Return value:  Size  Location     Type
  3961 ;;		None               void
  3962 ;; Registers used:
  3963 ;;		wreg, status,2, status,0, btemp+1, pclath, cstack
  3964 ;; Tracked objects:
  3965 ;;		On entry : 0/0
  3966 ;;		On exit  : 0/0
  3967 ;;		Unchanged: 0/0
  3968 ;; Data sizes:     COMMON   BANK0   BANK1   BANK3   BANK2
  3969 ;;      Params:         0       0       0       0       0
  3970 ;;      Locals:         1       0       0       0       0
  3971 ;;      Temps:          0       0       0       0       0
  3972 ;;      Totals:         1       0       0       0       0
  3973 ;;Total ram usage:        1 bytes
  3974 ;; Hardware stack levels used:    1
  3975 ;; Hardware stack levels required when called:    2
  3976 ;; This function calls:
  3977 ;;		_delay
  3978 ;;		_e_pulse
  3979 ;; This function is called by:
  3980 ;;		_send_dec
  3981 ;;		_send_string
  3982 ;; This function uses a non-reentrant model
  3983 ;;
  3984                           psect	text223,local,class=CODE,delta=2,merge=1
  3985                           global __ptext223
  3986  0E6C                     __ptext223:
  3987                           psect	text223
  3988                           	file	"PR25.c"
  3989                           	line	306
  3990                           	global	__size_of_send_char
  3991  0019                     	__size_of_send_char	equ	__end_of_send_char-_send_char
  3992                           	
  3993  0E6C                     _send_char:	
  3994                           	opt	stack 4
  3995                           ; Regs used in _send_char: [wreg+status,2+status,0+btemp+1+pclath+cstack]
  3996                           ;send_char@data stored from wreg
  3997  0E6C  00F6               	movwf	(send_char@data)
  3998                           	line	307
  3999                           	
  4000  0E6D                     l1530:	
  4001                           ;PR25.c: 307: RA0=1;
  4002  0E6D  1283               	bcf	status, 5	;RP0=0, select bank0
  4003  0E6E  1303               	bcf	status, 6	;RP1=0, select bank0
  4004  0E6F  1405               	bsf	(40/8),(40)&7	;volatile
  4005                           	line	308
  4006                           	
  4007  0E70                     l1532:	
  4008                           ;PR25.c: 308: PORTB = data;
  4009  0E70  0876               	movf	(send_char@data),w
  4010  0E71  0086               	movwf	(6)	;volatile
  4011                           	line	309
  4012                           	
  4013  0E72                     l1534:	
  4014                           ;PR25.c: 309: delay(400);
  4015  0E72  3000               	movlw	0
  4016  0E73  00F3               	movwf	(?_delay+3)
  4017  0E74  3000               	movlw	0
  4018  0E75  00F2               	movwf	(?_delay+2)
  4019  0E76  3001               	movlw	01h
  4020  0E77  00F1               	movwf	(?_delay+1)
  4021  0E78  3090               	movlw	090h
  4022  0E79  00F0               	movwf	(?_delay)
  4023                           
  4024  0E7A  120A  158A  2702   	fcall	_delay
              120A  158A         
  4025                           	line	310
  4026                           	
  4027  0E7F                     l1536:	
  4028                           ;PR25.c: 310: e_pulse();
  4029  0E7F  120A  158A  26BB   	fcall	_e_pulse
              120A  158A         
  4030                           	line	311
  4031                           	
  4032  0E84                     l161:	
  4033  0E84  0008               	return
  4034                           	opt stack 0
  4035                           GLOBAL	__end_of_send_char
  4036  0E85                     	__end_of_send_char:
  4037                           	signat	_send_char,4216
  4038                           	global	_e_pulse
  4039                           
  4040 ;; *************** function _e_pulse *****************
  4041 ;; Defined at:
  4042 ;;		line 368 in file "PR25.c"
  4043 ;; Parameters:    Size  Location     Type
  4044 ;;		None
  4045 ;; Auto vars:     Size  Location     Type
  4046 ;;		None
  4047 ;; Return value:  Size  Location     Type
  4048 ;;		None               void
  4049 ;; Registers used:
  4050 ;;		wreg, status,2, status,0, btemp+1, pclath, cstack
  4051 ;; Tracked objects:
  4052 ;;		On entry : 0/0
  4053 ;;		On exit  : 0/0
  4054 ;;		Unchanged: 0/0
  4055 ;; Data sizes:     COMMON   BANK0   BANK1   BANK3   BANK2
  4056 ;;      Params:         0       0       0       0       0
  4057 ;;      Locals:         0       0       0       0       0
  4058 ;;      Temps:          0       0       0       0       0
  4059 ;;      Totals:         0       0       0       0       0
  4060 ;;Total ram usage:        0 bytes
  4061 ;; Hardware stack levels used:    1
  4062 ;; Hardware stack levels required when called:    1
  4063 ;; This function calls:
  4064 ;;		_delay
  4065 ;; This function is called by:
  4066 ;;		_send_config
  4067 ;;		_send_char
  4068 ;; This function uses a non-reentrant model
  4069 ;;
  4070                           psect	text224,local,class=CODE,delta=2,merge=1
  4071                           global __ptext224
  4072  0EBB                     __ptext224:
  4073                           psect	text224
  4074                           	file	"PR25.c"
  4075                           	line	368
  4076                           	global	__size_of_e_pulse
  4077  0021                     	__size_of_e_pulse	equ	__end_of_e_pulse-_e_pulse
  4078                           	
  4079  0EBB                     _e_pulse:	
  4080                           	opt	stack 4
  4081                           ; Regs used in _e_pulse: [wreg+status,2+status,0+btemp+1+pclath+cstack]
  4082                           	line	369
  4083                           	
  4084  0EBB                     l1516:	
  4085                           ;PR25.c: 369: RC5=1;
  4086  0EBB  1283               	bcf	status, 5	;RP0=0, select bank0
  4087  0EBC  1303               	bcf	status, 6	;RP1=0, select bank0
  4088  0EBD  1687               	bsf	(61/8),(61)&7	;volatile
  4089                           	line	370
  4090                           	
  4091  0EBE                     l1518:	
  4092                           ;PR25.c: 370: delay(300);
  4093  0EBE  3000               	movlw	0
  4094  0EBF  00F3               	movwf	(?_delay+3)
  4095  0EC0  3000               	movlw	0
  4096  0EC1  00F2               	movwf	(?_delay+2)
  4097  0EC2  3001               	movlw	01h
  4098  0EC3  00F1               	movwf	(?_delay+1)
  4099  0EC4  302C               	movlw	02Ch
  4100  0EC5  00F0               	movwf	(?_delay)
  4101                           
  4102  0EC6  120A  158A  2702   	fcall	_delay
              120A  158A         
  4103                           	line	371
  4104                           	
  4105  0ECB                     l1520:	
  4106                           ;PR25.c: 371: RC5=0;
  4107  0ECB  1283               	bcf	status, 5	;RP0=0, select bank0
  4108  0ECC  1303               	bcf	status, 6	;RP1=0, select bank0
  4109  0ECD  1287               	bcf	(61/8),(61)&7	;volatile
  4110                           	line	372
  4111                           ;PR25.c: 372: delay(300);
  4112  0ECE  3000               	movlw	0
  4113  0ECF  00F3               	movwf	(?_delay+3)
  4114  0ED0  3000               	movlw	0
  4115  0ED1  00F2               	movwf	(?_delay+2)
  4116  0ED2  3001               	movlw	01h
  4117  0ED3  00F1               	movwf	(?_delay+1)
  4118  0ED4  302C               	movlw	02Ch
  4119  0ED5  00F0               	movwf	(?_delay)
  4120                           
  4121  0ED6  120A  158A  2702   	fcall	_delay
              120A  158A         
  4122                           	line	373
  4123                           	
  4124  0EDB                     l177:	
  4125  0EDB  0008               	return
  4126                           	opt stack 0
  4127                           GLOBAL	__end_of_e_pulse
  4128  0EDC                     	__end_of_e_pulse:
  4129                           	signat	_e_pulse,88
  4130                           	global	_delay
  4131                           
  4132 ;; *************** function _delay *****************
  4133 ;; Defined at:
  4134 ;;		line 292 in file "PR25.c"
  4135 ;; Parameters:    Size  Location     Type
  4136 ;;  data            4    0[COMMON] unsigned long 
  4137 ;; Auto vars:     Size  Location     Type
  4138 ;;  i               2    4[COMMON] int 
  4139 ;; Return value:  Size  Location     Type
  4140 ;;		None               void
  4141 ;; Registers used:
  4142 ;;		wreg, status,2, status,0, btemp+1
  4143 ;; Tracked objects:
  4144 ;;		On entry : 0/0
  4145 ;;		On exit  : 0/0
  4146 ;;		Unchanged: 0/0
  4147 ;; Data sizes:     COMMON   BANK0   BANK1   BANK3   BANK2
  4148 ;;      Params:         4       0       0       0       0
  4149 ;;      Locals:         2       0       0       0       0
  4150 ;;      Temps:          0       0       0       0       0
  4151 ;;      Totals:         6       0       0       0       0
  4152 ;;Total ram usage:        6 bytes
  4153 ;; Hardware stack levels used:    1
  4154 ;; This function calls:
  4155 ;;		Nothing
  4156 ;; This function is called by:
  4157 ;;		_main
  4158 ;;		_init
  4159 ;;		_send_config
  4160 ;;		_send_char
  4161 ;;		_e_pulse
  4162 ;;		_lcd_clr
  4163 ;; This function uses a non-reentrant model
  4164 ;;
  4165                           psect	text225,local,class=CODE,delta=2,merge=1
  4166                           global __ptext225
  4167  0F02                     __ptext225:
  4168                           psect	text225
  4169                           	file	"PR25.c"
  4170                           	line	292
  4171                           	global	__size_of_delay
  4172  002A                     	__size_of_delay	equ	__end_of_delay-_delay
  4173                           	
  4174  0F02                     _delay:	
  4175                           	opt	stack 4
  4176                           ; Regs used in _delay: [wreg+status,2+status,0+btemp+1]
  4177                           	line	294
  4178                           	
  4179  0F02                     l1462:	
  4180                           ;PR25.c: 293: int i;
  4181                           ;PR25.c: 294: for( i = data; i>0; i--);
  4182  0F02  0871               	movf	(delay@data+1),w
  4183  0F03  01F5               	clrf	(delay@i+1)
  4184  0F04  07F5               	addwf	(delay@i+1)
  4185  0F05  0870               	movf	(delay@data),w
  4186  0F06  01F4               	clrf	(delay@i)
  4187  0F07  07F4               	addwf	(delay@i)
  4188                           
  4189                           	
  4190  0F08                     l1464:	
  4191  0F08  0875               	movf	(delay@i+1),w
  4192  0F09  3A80               	xorlw	80h
  4193  0F0A  00FF               	movwf	btemp+1
  4194  0F0B  3080               	movlw	(high(01h))^80h
  4195  0F0C  027F               	subwf	btemp+1,w
  4196  0F0D  1D03               	skipz
  4197  0F0E  2F11               	goto	u895
  4198  0F0F  3001               	movlw	low(01h)
  4199  0F10  0274               	subwf	(delay@i),w
  4200  0F11                     u895:
  4201                           
  4202  0F11  1803               	skipnc
  4203  0F12  2F14               	goto	u891
  4204  0F13  2F15               	goto	u890
  4205  0F14                     u891:
  4206  0F14  2F17               	goto	l1468
  4207  0F15                     u890:
  4208  0F15  2F2B               	goto	l155
  4209                           	
  4210  0F16                     l1466:	
  4211  0F16  2F2B               	goto	l155
  4212                           	
  4213  0F17                     l153:	
  4214                           	
  4215  0F17                     l1468:	
  4216  0F17  30FF               	movlw	low(-1)
  4217  0F18  07F4               	addwf	(delay@i),f
  4218  0F19  1803               	skipnc
  4219  0F1A  0AF5               	incf	(delay@i+1),f
  4220  0F1B  30FF               	movlw	high(-1)
  4221  0F1C  07F5               	addwf	(delay@i+1),f
  4222                           	
  4223  0F1D                     l1470:	
  4224  0F1D  0875               	movf	(delay@i+1),w
  4225  0F1E  3A80               	xorlw	80h
  4226  0F1F  00FF               	movwf	btemp+1
  4227  0F20  3080               	movlw	(high(01h))^80h
  4228  0F21  027F               	subwf	btemp+1,w
  4229  0F22  1D03               	skipz
  4230  0F23  2F26               	goto	u905
  4231  0F24  3001               	movlw	low(01h)
  4232  0F25  0274               	subwf	(delay@i),w
  4233  0F26                     u905:
  4234                           
  4235  0F26  1803               	skipnc
  4236  0F27  2F29               	goto	u901
  4237  0F28  2F2A               	goto	u900
  4238  0F29                     u901:
  4239  0F29  2F17               	goto	l1468
  4240  0F2A                     u900:
  4241  0F2A  2F2B               	goto	l155
  4242                           	
  4243  0F2B                     l154:	
  4244                           	line	295
  4245                           	
  4246  0F2B                     l155:	
  4247  0F2B  0008               	return
  4248                           	opt stack 0
  4249                           GLOBAL	__end_of_delay
  4250  0F2C                     	__end_of_delay:
  4251                           	signat	_delay,4216
  4252                           	global	___llmod
  4253                           
  4254 ;; *************** function ___llmod *****************
  4255 ;; Defined at:
  4256 ;;		line 5 in file "C:\Program Files (x86)\Microchip\xc8\v1.00\sources\llmod.c"
  4257 ;; Parameters:    Size  Location     Type
  4258 ;;  divisor         4    0[COMMON] unsigned long 
  4259 ;;  dividend        4    4[COMMON] unsigned long 
  4260 ;; Auto vars:     Size  Location     Type
  4261 ;;  counter         1    9[COMMON] unsigned char 
  4262 ;; Return value:  Size  Location     Type
  4263 ;;                  4    0[COMMON] unsigned long 
  4264 ;; Registers used:
  4265 ;;		wreg, status,2, status,0
  4266 ;; Tracked objects:
  4267 ;;		On entry : 0/0
  4268 ;;		On exit  : 0/0
  4269 ;;		Unchanged: 0/0
  4270 ;; Data sizes:     COMMON   BANK0   BANK1   BANK3   BANK2
  4271 ;;      Params:         8       0       0       0       0
  4272 ;;      Locals:         1       0       0       0       0
  4273 ;;      Temps:          1       0       0       0       0
  4274 ;;      Totals:        10       0       0       0       0
  4275 ;;Total ram usage:       10 bytes
  4276 ;; Hardware stack levels used:    1
  4277 ;; This function calls:
  4278 ;;		Nothing
  4279 ;; This function is called by:
  4280 ;;		_send_dec
  4281 ;; This function uses a non-reentrant model
  4282 ;;
  4283                           psect	text226,local,class=CODE,delta=2,merge=1
  4284                           global __ptext226
  4285  00AF                     __ptext226:
  4286                           psect	text226
  4287                           	file	"C:\Program Files (x86)\Microchip\xc8\v1.00\sources\llmod.c"
  4288                           	line	5
  4289                           	global	__size_of___llmod
  4290  005C                     	__size_of___llmod	equ	__end_of___llmod-___llmod
  4291                           	
  4292  00AF                     ___llmod:	
  4293                           	opt	stack 6
  4294                           ; Regs used in ___llmod: [wreg+status,2+status,0]
  4295                           	line	8
  4296                           	
  4297  00AF                     l1472:	
  4298  00AF  0873               	movf	(___llmod@divisor+3),w
  4299  00B0  0472               	iorwf	(___llmod@divisor+2),w
  4300  00B1  0471               	iorwf	(___llmod@divisor+1),w
  4301  00B2  0470               	iorwf	(___llmod@divisor),w
  4302  00B3  1903               	skipnz
  4303  00B4  28B6               	goto	u911
  4304  00B5  28B7               	goto	u910
  4305  00B6                     u911:
  4306  00B6  2901               	goto	l1488
  4307  00B7                     u910:
  4308                           	line	9
  4309                           	
  4310  00B7                     l1474:	
  4311  00B7  01F9               	clrf	(___llmod@counter)
  4312  00B8  1403               	bsf	status,0
  4313  00B9  0DF9               	rlf	(___llmod@counter),f
  4314                           	line	10
  4315  00BA  28C9               	goto	l1478
  4316                           	
  4317  00BB                     l437:	
  4318                           	line	11
  4319                           	
  4320  00BB                     l1476:	
  4321  00BB  3001               	movlw	01h
  4322  00BC  00F8               	movwf	(??___llmod+0)+0
  4323  00BD                     u925:
  4324  00BD  1003               	clrc
  4325  00BE  0DF0               	rlf	(___llmod@divisor),f
  4326  00BF  0DF1               	rlf	(___llmod@divisor+1),f
  4327  00C0  0DF2               	rlf	(___llmod@divisor+2),f
  4328  00C1  0DF3               	rlf	(___llmod@divisor+3),f
  4329  00C2  0BF8               	decfsz	(??___llmod+0)+0
  4330  00C3  28BD               	goto	u925
  4331                           	line	12
  4332  00C4  3001               	movlw	(01h)
  4333  00C5  00F8               	movwf	(??___llmod+0)+0
  4334  00C6  0878               	movf	(??___llmod+0)+0,w
  4335  00C7  07F9               	addwf	(___llmod@counter),f
  4336  00C8  28C9               	goto	l1478
  4337                           	line	13
  4338                           	
  4339  00C9                     l436:	
  4340                           	line	10
  4341                           	
  4342  00C9                     l1478:	
  4343  00C9  1FF3               	btfss	(___llmod@divisor+3),(31)&7
  4344  00CA  28CC               	goto	u931
  4345  00CB  28CD               	goto	u930
  4346  00CC                     u931:
  4347  00CC  28BB               	goto	l1476
  4348  00CD                     u930:
  4349  00CD  28CF               	goto	l1480
  4350                           	
  4351  00CE                     l438:	
  4352  00CE  28CF               	goto	l1480
  4353                           	line	14
  4354                           	
  4355  00CF                     l439:	
  4356                           	line	15
  4357                           	
  4358  00CF                     l1480:	
  4359  00CF  0873               	movf	(___llmod@divisor+3),w
  4360  00D0  0277               	subwf	(___llmod@dividend+3),w
  4361  00D1  1D03               	skipz
  4362  00D2  28DD               	goto	u945
  4363  00D3  0872               	movf	(___llmod@divisor+2),w
  4364  00D4  0276               	subwf	(___llmod@dividend+2),w
  4365  00D5  1D03               	skipz
  4366  00D6  28DD               	goto	u945
  4367  00D7  0871               	movf	(___llmod@divisor+1),w
  4368  00D8  0275               	subwf	(___llmod@dividend+1),w
  4369  00D9  1D03               	skipz
  4370  00DA  28DD               	goto	u945
  4371  00DB  0870               	movf	(___llmod@divisor),w
  4372  00DC  0274               	subwf	(___llmod@dividend),w
  4373  00DD                     u945:
  4374  00DD  1C03               	skipc
  4375  00DE  28E0               	goto	u941
  4376  00DF  28E1               	goto	u940
  4377  00E0                     u941:
  4378  00E0  28F0               	goto	l1484
  4379  00E1                     u940:
  4380                           	line	16
  4381                           	
  4382  00E1                     l1482:	
  4383  00E1  0870               	movf	(___llmod@divisor),w
  4384  00E2  02F4               	subwf	(___llmod@dividend),f
  4385  00E3  0871               	movf	(___llmod@divisor+1),w
  4386  00E4  1C03               	skipc
  4387  00E5  0F71               	incfsz	(___llmod@divisor+1),w
  4388  00E6  02F5               	subwf	(___llmod@dividend+1),f
  4389  00E7  0872               	movf	(___llmod@divisor+2),w
  4390  00E8  1C03               	skipc
  4391  00E9  0F72               	incfsz	(___llmod@divisor+2),w
  4392  00EA  02F6               	subwf	(___llmod@dividend+2),f
  4393  00EB  0873               	movf	(___llmod@divisor+3),w
  4394  00EC  1C03               	skipc
  4395  00ED  0F73               	incfsz	(___llmod@divisor+3),w
  4396  00EE  02F7               	subwf	(___llmod@dividend+3),f
  4397  00EF  28F0               	goto	l1484
  4398                           	
  4399  00F0                     l440:	
  4400                           	line	17
  4401                           	
  4402  00F0                     l1484:	
  4403  00F0  3001               	movlw	01h
  4404  00F1                     u955:
  4405  00F1  1003               	clrc
  4406  00F2  0CF3               	rrf	(___llmod@divisor+3),f
  4407  00F3  0CF2               	rrf	(___llmod@divisor+2),f
  4408  00F4  0CF1               	rrf	(___llmod@divisor+1),f
  4409  00F5  0CF0               	rrf	(___llmod@divisor),f
  4410  00F6  3EFF               	addlw	-1
  4411  00F7  1D03               	skipz
  4412  00F8  28F1               	goto	u955
  4413                           
  4414                           	line	18
  4415                           	
  4416  00F9                     l1486:	
  4417  00F9  3001               	movlw	low(01h)
  4418  00FA  02F9               	subwf	(___llmod@counter),f
  4419  00FB  1D03               	btfss	status,2
  4420  00FC  28FE               	goto	u961
  4421  00FD  28FF               	goto	u960
  4422  00FE                     u961:
  4423  00FE  28CF               	goto	l1480
  4424  00FF                     u960:
  4425  00FF  2901               	goto	l1488
  4426                           	
  4427  0100                     l441:	
  4428  0100  2901               	goto	l1488
  4429                           	line	19
  4430                           	
  4431  0101                     l435:	
  4432                           	line	20
  4433                           	
  4434  0101                     l1488:	
  4435  0101  0877               	movf	(___llmod@dividend+3),w
  4436  0102  00F3               	movwf	(?___llmod+3)
  4437  0103  0876               	movf	(___llmod@dividend+2),w
  4438  0104  00F2               	movwf	(?___llmod+2)
  4439  0105  0875               	movf	(___llmod@dividend+1),w
  4440  0106  00F1               	movwf	(?___llmod+1)
  4441  0107  0874               	movf	(___llmod@dividend),w
  4442  0108  00F0               	movwf	(?___llmod)
  4443                           
  4444  0109  290A               	goto	l442
  4445                           	
  4446  010A                     l1490:	
  4447                           	line	21
  4448                           	
  4449  010A                     l442:	
  4450  010A  0008               	return
  4451                           	opt stack 0
  4452                           GLOBAL	__end_of___llmod
  4453  010B                     	__end_of___llmod:
  4454                           	signat	___llmod,8316
  4455                           	global	___lldiv
  4456                           
  4457 ;; *************** function ___lldiv *****************
  4458 ;; Defined at:
  4459 ;;		line 5 in file "C:\Program Files (x86)\Microchip\xc8\v1.00\sources\lldiv.c"
  4460 ;; Parameters:    Size  Location     Type
  4461 ;;  divisor         4    0[COMMON] unsigned long 
  4462 ;;  dividend        4    4[COMMON] unsigned long 
  4463 ;; Auto vars:     Size  Location     Type
  4464 ;;  quotient        4    9[COMMON] unsigned long 
  4465 ;;  counter         1   13[COMMON] unsigned char 
  4466 ;; Return value:  Size  Location     Type
  4467 ;;                  4    0[COMMON] unsigned long 
  4468 ;; Registers used:
  4469 ;;		wreg, status,2, status,0
  4470 ;; Tracked objects:
  4471 ;;		On entry : 0/0
  4472 ;;		On exit  : 0/0
  4473 ;;		Unchanged: 0/0
  4474 ;; Data sizes:     COMMON   BANK0   BANK1   BANK3   BANK2
  4475 ;;      Params:         8       0       0       0       0
  4476 ;;      Locals:         5       0       0       0       0
  4477 ;;      Temps:          1       0       0       0       0
  4478 ;;      Totals:        14       0       0       0       0
  4479 ;;Total ram usage:       14 bytes
  4480 ;; Hardware stack levels used:    1
  4481 ;; This function calls:
  4482 ;;		Nothing
  4483 ;; This function is called by:
  4484 ;;		_send_dec
  4485 ;; This function uses a non-reentrant model
  4486 ;;
  4487                           psect	text227,local,class=CODE,delta=2,merge=1
  4488                           global __ptext227
  4489  0F92                     __ptext227:
  4490                           psect	text227
  4491                           	file	"C:\Program Files (x86)\Microchip\xc8\v1.00\sources\lldiv.c"
  4492                           	line	5
  4493                           	global	__size_of___lldiv
  4494  006E                     	__size_of___lldiv	equ	__end_of___lldiv-___lldiv
  4495                           	
  4496  0F92                     ___lldiv:	
  4497                           	opt	stack 6
  4498                           ; Regs used in ___lldiv: [wreg+status,2+status,0]
  4499                           	line	9
  4500                           	
  4501  0F92                     l1492:	
  4502  0F92  3000               	movlw	0
  4503  0F93  00FC               	movwf	(___lldiv@quotient+3)
  4504  0F94  3000               	movlw	0
  4505  0F95  00FB               	movwf	(___lldiv@quotient+2)
  4506  0F96  3000               	movlw	0
  4507  0F97  00FA               	movwf	(___lldiv@quotient+1)
  4508  0F98  3000               	movlw	0
  4509  0F99  00F9               	movwf	(___lldiv@quotient)
  4510                           
  4511                           	line	10
  4512  0F9A  0873               	movf	(___lldiv@divisor+3),w
  4513  0F9B  0472               	iorwf	(___lldiv@divisor+2),w
  4514  0F9C  0471               	iorwf	(___lldiv@divisor+1),w
  4515  0F9D  0470               	iorwf	(___lldiv@divisor),w
  4516  0F9E  1903               	skipnz
  4517  0F9F  2FA1               	goto	u971
  4518  0FA0  2FA2               	goto	u970
  4519  0FA1                     u971:
  4520  0FA1  2FF6               	goto	l1512
  4521  0FA2                     u970:
  4522                           	line	11
  4523                           	
  4524  0FA2                     l1494:	
  4525  0FA2  01FD               	clrf	(___lldiv@counter)
  4526  0FA3  1403               	bsf	status,0
  4527  0FA4  0DFD               	rlf	(___lldiv@counter),f
  4528                           	line	12
  4529  0FA5  2FB4               	goto	l1498
  4530                           	
  4531  0FA6                     l456:	
  4532                           	line	13
  4533                           	
  4534  0FA6                     l1496:	
  4535  0FA6  3001               	movlw	01h
  4536  0FA7  00F8               	movwf	(??___lldiv+0)+0
  4537  0FA8                     u985:
  4538  0FA8  1003               	clrc
  4539  0FA9  0DF0               	rlf	(___lldiv@divisor),f
  4540  0FAA  0DF1               	rlf	(___lldiv@divisor+1),f
  4541  0FAB  0DF2               	rlf	(___lldiv@divisor+2),f
  4542  0FAC  0DF3               	rlf	(___lldiv@divisor+3),f
  4543  0FAD  0BF8               	decfsz	(??___lldiv+0)+0
  4544  0FAE  2FA8               	goto	u985
  4545                           	line	14
  4546  0FAF  3001               	movlw	(01h)
  4547  0FB0  00F8               	movwf	(??___lldiv+0)+0
  4548  0FB1  0878               	movf	(??___lldiv+0)+0,w
  4549  0FB2  07FD               	addwf	(___lldiv@counter),f
  4550  0FB3  2FB4               	goto	l1498
  4551                           	line	15
  4552                           	
  4553  0FB4                     l455:	
  4554                           	line	12
  4555                           	
  4556  0FB4                     l1498:	
  4557  0FB4  1FF3               	btfss	(___lldiv@divisor+3),(31)&7
  4558  0FB5  2FB7               	goto	u991
  4559  0FB6  2FB8               	goto	u990
  4560  0FB7                     u991:
  4561  0FB7  2FA6               	goto	l1496
  4562  0FB8                     u990:
  4563  0FB8  2FBA               	goto	l1500
  4564                           	
  4565  0FB9                     l457:	
  4566  0FB9  2FBA               	goto	l1500
  4567                           	line	16
  4568                           	
  4569  0FBA                     l458:	
  4570                           	line	17
  4571                           	
  4572  0FBA                     l1500:	
  4573  0FBA  3001               	movlw	01h
  4574  0FBB  00F8               	movwf	(??___lldiv+0)+0
  4575  0FBC                     u1005:
  4576  0FBC  1003               	clrc
  4577  0FBD  0DF9               	rlf	(___lldiv@quotient),f
  4578  0FBE  0DFA               	rlf	(___lldiv@quotient+1),f
  4579  0FBF  0DFB               	rlf	(___lldiv@quotient+2),f
  4580  0FC0  0DFC               	rlf	(___lldiv@quotient+3),f
  4581  0FC1  0BF8               	decfsz	(??___lldiv+0)+0
  4582  0FC2  2FBC               	goto	u1005
  4583                           	line	18
  4584                           	
  4585  0FC3                     l1502:	
  4586  0FC3  0873               	movf	(___lldiv@divisor+3),w
  4587  0FC4  0277               	subwf	(___lldiv@dividend+3),w
  4588  0FC5  1D03               	skipz
  4589  0FC6  2FD1               	goto	u1015
  4590  0FC7  0872               	movf	(___lldiv@divisor+2),w
  4591  0FC8  0276               	subwf	(___lldiv@dividend+2),w
  4592  0FC9  1D03               	skipz
  4593  0FCA  2FD1               	goto	u1015
  4594  0FCB  0871               	movf	(___lldiv@divisor+1),w
  4595  0FCC  0275               	subwf	(___lldiv@dividend+1),w
  4596  0FCD  1D03               	skipz
  4597  0FCE  2FD1               	goto	u1015
  4598  0FCF  0870               	movf	(___lldiv@divisor),w
  4599  0FD0  0274               	subwf	(___lldiv@dividend),w
  4600  0FD1                     u1015:
  4601  0FD1  1C03               	skipc
  4602  0FD2  2FD4               	goto	u1011
  4603  0FD3  2FD5               	goto	u1010
  4604  0FD4                     u1011:
  4605  0FD4  2FE5               	goto	l1508
  4606  0FD5                     u1010:
  4607                           	line	19
  4608                           	
  4609  0FD5                     l1504:	
  4610  0FD5  0870               	movf	(___lldiv@divisor),w
  4611  0FD6  02F4               	subwf	(___lldiv@dividend),f
  4612  0FD7  0871               	movf	(___lldiv@divisor+1),w
  4613  0FD8  1C03               	skipc
  4614  0FD9  0F71               	incfsz	(___lldiv@divisor+1),w
  4615  0FDA  02F5               	subwf	(___lldiv@dividend+1),f
  4616  0FDB  0872               	movf	(___lldiv@divisor+2),w
  4617  0FDC  1C03               	skipc
  4618  0FDD  0F72               	incfsz	(___lldiv@divisor+2),w
  4619  0FDE  02F6               	subwf	(___lldiv@dividend+2),f
  4620  0FDF  0873               	movf	(___lldiv@divisor+3),w
  4621  0FE0  1C03               	skipc
  4622  0FE1  0F73               	incfsz	(___lldiv@divisor+3),w
  4623  0FE2  02F7               	subwf	(___lldiv@dividend+3),f
  4624                           	line	20
  4625                           	
  4626  0FE3                     l1506:	
  4627  0FE3  1479               	bsf	(___lldiv@quotient)+(0/8),(0)&7
  4628  0FE4  2FE5               	goto	l1508
  4629                           	line	21
  4630                           	
  4631  0FE5                     l459:	
  4632                           	line	22
  4633                           	
  4634  0FE5                     l1508:	
  4635  0FE5  3001               	movlw	01h
  4636  0FE6                     u1025:
  4637  0FE6  1003               	clrc
  4638  0FE7  0CF3               	rrf	(___lldiv@divisor+3),f
  4639  0FE8  0CF2               	rrf	(___lldiv@divisor+2),f
  4640  0FE9  0CF1               	rrf	(___lldiv@divisor+1),f
  4641  0FEA  0CF0               	rrf	(___lldiv@divisor),f
  4642  0FEB  3EFF               	addlw	-1
  4643  0FEC  1D03               	skipz
  4644  0FED  2FE6               	goto	u1025
  4645                           
  4646                           	line	23
  4647                           	
  4648  0FEE                     l1510:	
  4649  0FEE  3001               	movlw	low(01h)
  4650  0FEF  02FD               	subwf	(___lldiv@counter),f
  4651  0FF0  1D03               	btfss	status,2
  4652  0FF1  2FF3               	goto	u1031
  4653  0FF2  2FF4               	goto	u1030
  4654  0FF3                     u1031:
  4655  0FF3  2FBA               	goto	l1500
  4656  0FF4                     u1030:
  4657  0FF4  2FF6               	goto	l1512
  4658                           	
  4659  0FF5                     l460:	
  4660  0FF5  2FF6               	goto	l1512
  4661                           	line	24
  4662                           	
  4663  0FF6                     l454:	
  4664                           	line	25
  4665                           	
  4666  0FF6                     l1512:	
  4667  0FF6  087C               	movf	(___lldiv@quotient+3),w
  4668  0FF7  00F3               	movwf	(?___lldiv+3)
  4669  0FF8  087B               	movf	(___lldiv@quotient+2),w
  4670  0FF9  00F2               	movwf	(?___lldiv+2)
  4671  0FFA  087A               	movf	(___lldiv@quotient+1),w
  4672  0FFB  00F1               	movwf	(?___lldiv+1)
  4673  0FFC  0879               	movf	(___lldiv@quotient),w
  4674  0FFD  00F0               	movwf	(?___lldiv)
  4675                           
  4676  0FFE  2FFF               	goto	l461
  4677                           	
  4678  0FFF                     l1514:	
  4679                           	line	26
  4680                           	
  4681  0FFF                     l461:	
  4682  0FFF  0008               	return
  4683                           	opt stack 0
  4684                           GLOBAL	__end_of___lldiv
  4685  1000                     	__end_of___lldiv:
  4686                           	signat	___lldiv,8316
  4687                           psect	text228,local,class=CODE,delta=2,merge=1
  4688                           global __ptext228
  4689  0000                     __ptext228:
  4690                           	global	btemp
  4691  007E                     	btemp set 07Eh
  4692                           
  4693                           	DABS	1,126,2	;btemp
  4694                           	global	wtemp0
  4695  007E                     	wtemp0 set btemp


Data Sizes:
    Strings     154
    Constant    0
    Data        6
    BSS         0
    Persistent  0
    Stack       0

Auto Spaces:
    Space          Size  Autos    Used
    COMMON           14     14      14
    BANK0            80     51      57
    BANK1            80      0       0
    BANK3            96      0       0
    BANK2            96      0       0

Pointer List with Targets:

    ?___lldiv	unsigned long  size(1) Largest target is 0

    ?___llmod	unsigned long  size(1) Largest target is 0

    send_string@s	PTR const unsigned char  size(1) Largest target is 18
		 -> STR_14(CODE[16]), STR_13(CODE[8]), STR_12(CODE[15]), STR_11(CODE[8]), 
		 -> STR_10(CODE[14]), STR_9(CODE[15]), STR_8(CODE[18]), STR_7(CODE[8]), 
		 -> STR_6(CODE[16]), STR_5(CODE[17]), STR_4(CODE[14]), STR_3(CODE[15]), 
		 -> STR_2(CODE[10]), STR_1(CODE[11]), 


Critical Paths under _main in COMMON

    _init->_send_config
    _lcd_clr->_send_config
    _lcd_goto->_send_config
    _send_string->_send_char
    _send_dec->___lldiv
    _send_config->_delay
    _send_char->_delay
    _e_pulse->_delay

Critical Paths under _main in BANK0

    _main->_send_dec

Critical Paths under _main in BANK1

    None.

Critical Paths under _main in BANK3

    None.

Critical Paths under _main in BANK2

    None.

Call Graph Tables:

 ---------------------------------------------------------------------------------
 (Depth) Function   	        Calls       Base Space   Used Autos Params    Refs
 ---------------------------------------------------------------------------------
 (0) _main                                                46    46      0    3731
                                              5 BANK0     46    46      0
                               _init
                            _lcd_clr
                           _lcd_goto
                        _send_string
                              _delay
                           _send_dec
 ---------------------------------------------------------------------------------
 (1) _init                                                 0     0      0     226
                        _send_config
                              _delay
 ---------------------------------------------------------------------------------
 (1) _lcd_clr                                              0     0      0     226
                        _send_config
                              _delay
 ---------------------------------------------------------------------------------
 (1) _lcd_goto                                             2     2      0     247
                                              7 COMMON     2     2      0
                        _send_config
 ---------------------------------------------------------------------------------
 (1) _send_string                                          2     2      0     225
                                              7 COMMON     2     2      0
                          _send_char
 ---------------------------------------------------------------------------------
 (1) _send_dec                                             5     0      5    1149
                                              0 BANK0      5     0      5
                            ___llmod
                            ___lldiv
                          _send_char
 ---------------------------------------------------------------------------------
 (2) _send_config                                          1     1      0     158
                                              6 COMMON     1     1      0
                              _delay
                            _e_pulse
 ---------------------------------------------------------------------------------
 (2) _send_char                                            1     1      0     158
                                              6 COMMON     1     1      0
                              _delay
                            _e_pulse
 ---------------------------------------------------------------------------------
 (3) _e_pulse                                              0     0      0      68
                              _delay
 ---------------------------------------------------------------------------------
 (4) _delay                                                6     2      4      68
                                              0 COMMON     6     2      4
 ---------------------------------------------------------------------------------
 (2) ___llmod                                             10     2      8     159
                                              0 COMMON    10     2      8
 ---------------------------------------------------------------------------------
 (2) ___lldiv                                             14     6      8     162
                                              0 COMMON    14     6      8
 ---------------------------------------------------------------------------------
 Estimated maximum stack depth 4
 ---------------------------------------------------------------------------------

 Call Graph Graphs:

 _main (ROOT)
   _init
     _send_config
       _delay
       _e_pulse
         _delay
     _delay
   _lcd_clr
     _send_config
       _delay
       _e_pulse
         _delay
     _delay
   _lcd_goto
     _send_config
       _delay
       _e_pulse
         _delay
   _send_string
     _send_char
       _delay
       _e_pulse
         _delay
   _delay
   _send_dec
     ___llmod
     ___lldiv
     _send_char
       _delay
       _e_pulse
         _delay

 Address spaces:
Name               Size   Autos  Total    Cost      Usage
BANK3               60      0       0       9        0.0%
BITBANK3            60      0       0       8        0.0%
SFR3                 0      0       0       4        0.0%
BITSFR3              0      0       0       4        0.0%
BANK2               60      0       0      11        0.0%
BITBANK2            60      0       0      10        0.0%
SFR2                 0      0       0       5        0.0%
BITSFR2              0      0       0       5        0.0%
BANK1               50      0       0       7        0.0%
BITBANK1            50      0       0       6        0.0%
SFR1                 0      0       0       2        0.0%
BITSFR1              0      0       0       2        0.0%
BANK0               50     33      39       5       71.3%
BITBANK0            50      0       0       4        0.0%
SFR0                 0      0       0       1        0.0%
BITSFR0              0      0       0       1        0.0%
COMMON               E      E       E       1      100.0%
BITCOMMON            E      0       0       0        0.0%
CODE                 0      0       0       0        0.0%
DATA                 0      0      4B      12        0.0%
ABS                  0      0      47       3        0.0%
NULL                 0      0       0       0        0.0%
STACK                0      0       4       2        0.0%
EEDATA             100      0       0       0        0.0%


HI-TECH Software PICC Macro Assembler V1.00 build 12136 
Symbol Table                                                                                   Wed Jun 27 12:58:34 2012

                   pc 0002                    l50 03FD                    l51 03FD                    l60 0551  
                  l52 0435                    l61 043D                    l53 041E                    l70 0466  
                  l62 0456                    l54 042B                    l71 0466                    l63 044B  
                  l80 0481                    l64 044B                    l56 0427                    l81 0481  
                  l73 046F                    l57 0435                    l49 03E6                    l90 04AA  
                  l82 049A                    l74 0470                    l66 0454                    l58 0434  
                  l75 04BB                    l91 04AA                    l83 048F                    l67 0455  
                  l59 043C                    l84 048F                    l76 0477                    l68 0472  
                  l93 04B3                    l77 0478                    l69 0471                    l94 04B4  
                  l86 0498                    l78 0478                    l95 04C1                    l87 0499  
                  l96 04D3                    l88 04B6                    l97 04E9                    l89 04B5  
                  l98 04F2                    l99 0515                    fsr 0004                   l100 051E  
                 l101 054B                   l102 0540                   l111 0585                   l103 055A  
                 l104 0630                   l120 05B9                   l112 0585                   l121 05AE  
                 l113 059E                   l105 055B                   l130 061C                   l106 05BF  
                 l122 05AE                   l114 0593                   l131 0639                   l115 0593  
                 l107 0579                   l140 07D1                   l132 07C7                   l124 05B7  
                 l108 057A                   l141 0721                   l133 063A                   l125 05B8  
                 l117 059C                   l109 057A                   l150 0F91                   l142 0776  
                 l134 0696                   l126 05C7                   l118 059D                   l143 07DE  
                 l135 06AD                   l127 05D9                   l119 05BA                   l144 07F4  
                 l136 06D7                   l128 05EF                   l153 0F17                   l161 0E84  
                 l145 07FC                   l137 0720                   l129 05F8                   l154 0F2B  
                 l170 02E7                   l146 07FD                   l138 0701                   l155 0F2B  
                 l171 032B                   l147 07FD                   l139 0718                   l172 036F  
                 l164 014F                   l180 0EAD                   l173 039C                   l165 0193  
                 l181 0EBA                   l158 0E9D                   l174 039C                   l166 01D7  
                 l182 0EBA                   l167 021B                   l191 0F00                   l440 00F0  
                 l168 025F                   l192 0F01                   l441 0100                   l177 0EDB  
                 l169 02A3                   l193 0F01                   l185 0E6B                   l442 010A  
                 l435 0101                   l460 0FF5                   l436 00C9                   l188 0EEF  
                 l461 0FFF                   l437 00BB                   l189 0EDE                   l454 0FF6  
                 l438 00CE                   l455 0FB4                   l439 00CF                   l456 0FA6  
                 l457 0FB9                   l458 0FBA                   l459 0FE5                   _RA0 0028  
                 _RA1 0029                   _RA4 002C                   _RC1 0039                   _RC2 003A  
                 _RC3 003B                   _RC4 003C                   _RC5 003D                   u900 0F2A  
                 u901 0F29                   u910 00B7                   u911 00B6                   u905 0F26  
                 u930 00CD                   u931 00CC                   u940 00E1                   u941 00E0  
                 u925 00BD                   u960 00FF                   u961 00FE                   u945 00DD  
                 u970 0FA2                   u890 0F15                   u971 0FA1                   u955 00F1  
                 u891 0F14                   u990 0FB8                   u991 0FB7                   u895 0F11  
                 u985 0FA8                   fsr0 0004                   indf 0000       send_config@data 0076  
                l1500 0FBA                  l1510 0FEE                  l1502 0FC3                  l1504 0FD5  
                l1512 0FF6                  l1520 0ECB                  l1600 01D7                  l1514 0FFF  
                l1506 0FE3                  l1530 0E6D                  l1522 0E86                  l1610 0242  
                l1602 01DF                  l1508 0FE5                  l1516 0EBB                  l1532 0E70  
                l1524 0E89                  l1620 02AB                  l1612 025F                  l1604 01FE  
                l1540 0F5C                  l1700 0441                  l1470 0F1D                  l1462 0F02  
                l1518 0EBE                  l1534 0E72                  l1526 0E8B                  l1630 032B  
                l1622 02CA                  l1614 0267                  l1606 021B                  l1550 0F71  
                l1542 0F5D                  l1710 046A                  l1702 0445                  l1480 00CF  
                l1472 00AF                  l1464 0F08                  l1536 0E7F                  l1528 0E98  
                l1640 0394                  l1632 0333                  l1624 02E7                  l1616 0286  
                l1608 0223                  l1560 0F90                  l1552 0F77                  l1544 0F5F  
                l1800 05D1                  l1720 0493                  l1704 044F                  l1712 0472  
                l1490 010A                  l1482 00E1                  l1474 00B7                  l1466 0F16  
                l1634 0352                  l1626 02EF                  l1618 02A3                  l1570 0EB2  
                l1562 0E58                  l1554 0F7D                  l1546 0F65                  l1538 0F56  
                l1810 05F0                  l1802 05D8                  l1722 049E                  l1714 047C  
                l1730 04BB                  l1706 045A                  l1650 03A9                  l1642 039D  
                l1492 0F92                  l1484 00F0                  l1476 00BB                  l1468 0F17  
                l1636 036F                  l1628 030E                  l1580 0EF3                  l1572 0EDD  
                l1564 0E9F                  l1556 0F80                  l1548 0F6B                  l1900 0778  
                l1812 05F7                  l1820 061C                  l1804 05D9                  l1740 04D3  
                l1732 04C3                  l1724 04A2                  l1716 0485                  l1708 045E  
                l1660 03C0                  l1652 03B1                  l1644 03A0                  l1494 0FA2  
                l1486 00F9                  l1478 00C9                  l1638 0375                  l1590 0157  
                l1582 010B                  l1574 0EDE                  l1566 0EA5                  l1558 0F8D  
                l1910 07A8                  l1902 077E                  l1830 063C                  l1822 0620  
                l1814 05F8                  l1806 05E5                  l1750 04F2                  l1742 04DF  
                l1734 04C8                  l1726 04AE                  l1718 0489                  l1670 03D9  
                l1662 03C1                  l1654 03B6                  l1646 03A2                  l1496 0FA6  
                l1488 0101                  l1592 0176                  l1584 0113                  l1576 0EEA  
                l1568 0EAD                  l1920 07D7                  l1912 07B9                  l1904 0784  
                l1840 066C                  l1832 0642                  l1824 0626                  l1816 0611  
                l1808 05E9                  l1760 051E                  l1752 050B                  l1744 04E3  
                l1736 04CB                  l1728 04B6                  l1680 03F7                  l1672 03DF  
                l1664 03C7                  l1656 03BB                  l1648 03A3                  l1498 0FB4  
                l1594 0193                  l1586 0132                  l1578 0EEF                  l1930 07F9  
                l1922 07DD                  l1914 07C6                  l1906 078A                  l1850 0696  
                l1842 067D                  l1834 0648                  l1826 062A                  l1818 0615  
                l1762 0528                  l1754 050F                  l1746 04EA                  l1738 04D2  
                l1770 0551                  l1690 0411                  l1682 03FE                  l1674 03E5  
                l1666 03CD                  l1658 03BE                  l1596 019B                  l1588 014F  
                l1924 07DE                  l1908 07A2                  l1860 06BE                  l1852 06A3  
                l1844 0689                  l1836 064E                  l1916 07C7                  l1780 0589  
                l1772 055B                  l1828 0630                  l1764 053C                  l1756 0516  
                l1748 04F1                  l1692 0417                  l1684 0400                  l1676 03E6  
                l1668 03D3                  l1598 01BA                  l1926 07EB                  l1870 06F4  
                l1918 07D1                  l1862 06CA                  l1854 06A7                  l1846 068F  
                l1838 0666                  l1790 05B2                  l1782 058D                  l1774 0566  
                l1766 0540                  l1758 051D                  l1694 0422                  l1686 0405  
                l1678 03F3                  l1928 07EF                  l1880 0712                  l1872 06FA  
                l1864 06D0                  l1848 0695                  l1856 06AD                  l1784 0597  
                l1792 05BA                  l1776 056C                  l1768 054B                  l1696 0427  
                l1688 040B                  l1890 0734                  l1874 0700                  l1882 0718  
                l1866 06D6                  l1858 06B8                  l1786 05A2                  l1778 0580  
                l1794 05BF                  l1698 042F                  l1892 073A                  l1884 071A  
                l1876 0701                  l1868 06D7                  l1796 05C9                  l1788 05A6  
                l1894 0752                  l1886 0723                  l1878 070E                  l1798 05CE  
                l1896 0758                  l1888 072E                  l1898 0769                  STR_1 0086  
                STR_2 0091                  STR_3 003D                  STR_4 0078                  STR_5 001B  
                STR_6 003C                  STR_7 009B                  STR_8 0009                  STR_9 005B  
                u1010 0FD5                  u1011 0FD4                  u1100 01DF                  u1005 0FBC  
                u1101 01DE                  u1030 0FF4                  u1110 0223                  u1031 0FF3  
                u1015 0FD1                  u1111 0222                  u1120 0267                  u1040 0EA5  
                u1200 0426                  u1025 0FE6                  u1121 0266                  u1041 0EA4  
                u1201 0425                  u1130 02AB                  u1050 0EF3                  u1210 042F  
                u1131 02AA                  u1211 042E                  u1140 02EF                  u1060 0EFF  
                u1300 046E                  u1220 043B                  u1141 02EE                  u1061 0EFE  
                u1301 046D                  u1150 0333                  u1070 0113                  u1310 047C  
                u1230 0441                  u1151 0332                  u1071 0112                  u1311 047B  
                u1231 0440                  u1160 0375                  u1080 0157                  u1400 04B2  
                u1320 0480                  u1240 0445                  u1081 0156                  u1401 04B1  
                u1321 047F                  u1241 0444                  u1090 019B                  u1410 04C1  
                u1330 0485                  u1250 044F                  u1170 03E4                  u1091 019A  
                u1411 04C0                  u1331 0484                  u1251 044E                  u1171 03E3  
                u1500 054A                  u1420 04D1                  u1340 0489                  u1260 0453  
                u1180 03FC                  u1501 0549                  u1421 04D0                  u1341 0488  
                u1261 0452                  u1181 03FB                  u1510 0559                  u1430 04E9  
                u1350 0493                  u1270 045A                  u1190 0422                  u1511 0558  
                u1431 04E8                  u1351 0492                  u1271 0459                  u1191 0421  
                u1600 05B2                  u1520 0580                  u1440 04F0                  u1360 0497  
                u1280 045E                  u1601 05B1                  u1521 057F                  u1441 04EF  
                u1361 0496                  u1281 045D                  u1610 05B6                  u1530 0584  
                u1370 049E                  u1290 046A                  u1611 05B5                  u1531 0583  
                u1371 049D                  u1291 0469                  u1700 06AC                  u1620 05C7  
                u1540 0589                  u1460 0515                  u1380 04A2                  u1701 06AB  
                u1621 05C6                  u1541 0588                  u1461 0514                  u1381 04A1  
                u1710 06D5                  u1630 05D7                  u1550 058D                  u1470 051C  
                u1390 04AE                  u1711 06D4                  u1631 05D6                  u1551 058C  
                u1471 051B                  u1455 0500                  u1391 04AD                  u1720 06FF  
                u1640 05EF                  u1560 0597                  u1480 0528                  u1721 06FE  
                u1641 05EE                  u1561 0596                  u1481 0527                  u1730 0717  
                u1650 05F6                  u1570 059B                  u1490 053C                  u1731 0716  
                u1651 05F5                  u1571 059A                  u1491 053B                  u1740 071F  
                u1580 05A2                  u1741 071E                  u1581 05A1                  u1750 07DC  
                u1670 061B                  u1590 05A6                  u1751 07DB                  u1671 061A  
                u1591 05A5                  u1495 0538                  u1760 07F4                  u1680 0638  
                u1761 07F3                  u1681 0637                  u1665 0606                  u1690 0694  
                u1691 0693                  _main 039D                  _init 0F56                  btemp 007E  
        lcd_goto@data 0078                  start 0000          main@database 0044                 ?_main 0070  
               ?_init 0070          main@convert1 0050          main@convert2 004E                 STR_10 006A  
               STR_11 009B                 STR_12 004C                 STR_13 009B                 STR_14 002C  
     __end_of___lldiv 1000       __end_of___llmod 010B                 _PORTB 0006                 _TRISA 0085  
               _TRISB 0086                 _TRISC 0087       __end_of_e_pulse 0EDC       __end_of_lcd_clr 0E6C  
               _delay 0F02                 main@a 004B                 main@b 004D                 main@i 0052  
               pclath 000A                 status 0003                 wtemp0 007E          __end_of_main 0800  
        __end_of_init 0F92                ??_main 0025                ??_init 0077                ?_delay 0070  
        ?_send_config 0070                _ADCON1 009F      ___llmod@dividend 0074          ?_send_string 0070  
    __end_of_lcd_goto 0EBB             ??___lldiv 0078             ??___llmod 0078                delay@i 0074  
           ??_e_pulse 0076             ??_lcd_clr 0077      __end_of_send_dec 039D        __pcstackCOMMON 0070  
        __pidataBANK0 00A9         __end_of_delay 0F2C               ??_delay 0074            __pmaintext 039D  
  __size_of_send_char 0019             ?_lcd_goto 0070  __size_of_send_config 0019  __size_of_send_string 0026  
           ?_send_dec 0020               ___lldiv 0F92               ___llmod 00AF               _e_pulse 0EBB  
             _lcd_clr 0E58               main@id1 0049               main@id2 0045            ??_lcd_goto 0077  
end_of_initialization 0F52     __end_of_send_char 0E85       ___lldiv@divisor 0070            ??_send_dec 007E  
     ___lldiv@counter 007D         send_char@data 0076            main@repeat 0051   start_initialization 0F2C  
     ___llmod@divisor 0070       ___llmod@counter 0079           __pdataBANK0 0053         __pcstackBANK0 0020  
   __size_of_lcd_goto 001D     __size_of_send_dec 0292             __ptext220 0EDC             __ptext221 010B  
           __ptext222 0E85             __ptext223 0E6C             __ptext224 0EBB             __ptext225 0F02  
           __ptext217 0F56             __ptext226 00AF             __ptext218 0E58             __ptext227 0F92  
           __ptext219 0E9E             __ptext228 0000              ?___lldiv 0070              ?___llmod 0070  
            ?_e_pulse 0070             __pstrings 0003              ?_lcd_clr 0070         ??_send_config 0076  
      __size_of_delay 002A             delay@data 0070         ??_send_string 0077             _send_char 0E6C  
        send_dec@data 0020             main@F1157 0057             main@F1159 0053           __stringbase 0008  
 __end_of_send_config 0E9E            ?_send_char 0070          send_string@s 0078   __end_of_send_string 0F02  
    __size_of___lldiv 006E      __size_of___llmod 005C      __size_of_e_pulse 0021      __size_of_lcd_clr 0014  
            _lcd_goto 0E9E         __size_of_main 0463         __size_of_init 003C              _send_dec 010B  
     send_dec@num_dig 0024              main@data 002A              main@mode 004C           _send_config 0E85  
         _send_string 0EDC      ___lldiv@dividend 0074           ??_send_char 0076             stringcode 0003  
    ___lldiv@quotient 0079              stringdir 0003              stringtab 0003  
