

HI-TECH Software PIC LITE Macro Assembler V9.80 build 6738 
                                                                                               Wed Jun 20 23:08:49 2012

HI-TECH Software Omniscient Code Generator (Lite mode) build 6738
     1  0000                     opt subtitle "HI-TECH Software Omniscient Code Generator (Lite mode) build 6738"
     2                           
     3                           opt pagewidth 120
     4                           
     5                           	opt lm
     6                           
     7                           	processor	16F876A
     8                           clrc	macro
     9                           	bcf	3,0
    10  0000                     	endm
    11                           clrz	macro
    12                           	bcf	3,2
    13  0000                     	endm
    14                           setc	macro
    15                           	bsf	3,0
    16  0000                     	endm
    17                           setz	macro
    18                           	bsf	3,2
    19  0000                     	endm
    20                           skipc	macro
    21                           	btfss	3,0
    22  0000                     	endm
    23                           skipz	macro
    24                           	btfss	3,2
    25  0000                     	endm
    26                           skipnc	macro
    27                           	btfsc	3,0
    28  0000                     	endm
    29                           skipnz	macro
    30                           	btfsc	3,2
    31  0000                     	endm
    32  0000                     indf	equ	0
    33  0000                     indf0	equ	0
    34  0002                     pc	equ	2
    35  0002                     pcl	equ	2
    36  0003                     status	equ	3
    37  0004                     fsr	equ	4
    38  0004                     fsr0	equ	4
    39  0001                     c	equ	1
    40  0000                     z	equ	0
    41  000A                     pclath	equ	10
    42                           # 17 "C:\Users\Phang\Desktop\9.80\PR 25\PR25.c"
    43                           	psect config,class=CONFIG,delta=2 ;#
    44                           # 17 "C:\Users\Phang\Desktop\9.80\PR 25\PR25.c"
    45  2007  3F32               	dw 0x3F32 ;#
    46                           	FNCALL	_main,_init
    47                           	FNCALL	_main,_lcd_clr
    48                           	FNCALL	_main,_lcd_goto
    49                           	FNCALL	_main,_send_string
    50                           	FNCALL	_main,_delay
    51                           	FNCALL	_main,_send_dec
    52                           	FNCALL	_send_dec,___llmod
    53                           	FNCALL	_send_dec,___lldiv
    54                           	FNCALL	_send_dec,_send_char
    55                           	FNCALL	_send_string,_send_char
    56                           	FNCALL	_lcd_goto,_send_config
    57                           	FNCALL	_lcd_clr,_send_config
    58                           	FNCALL	_lcd_clr,_delay
    59                           	FNCALL	_init,_send_config
    60                           	FNCALL	_init,_delay
    61                           	FNCALL	_send_char,_delay
    62                           	FNCALL	_send_char,_e_pulse
    63                           	FNCALL	_send_config,_delay
    64                           	FNCALL	_send_config,_e_pulse
    65                           	FNCALL	_e_pulse,_delay
    66                           	FNROOT	_main
    67                           	global	main@F483
    68                           	global	main@F481
    69                           psect	idataBANK0,class=CODE,space=0,delta=2
    70                           global __pidataBANK0
    71  0E0A                     __pidataBANK0:
    72                           	file	"C:\Users\Phang\Desktop\9.80\PR 25\PR25.c"
    73                           	line	57
    74                           
    75                           ;initializer for main@F483
    76  0E0A  34B1               	retlw	0B1h
    77  0E0B  3457               	retlw	057h
    78                           
    79  0E0C  3400               	retlw	0
    80  0E0D  3400               	retlw	0
    81                           
    82                           	line	56
    83                           
    84                           ;initializer for main@F481
    85  0E0E  347F               	retlw	07Fh
    86  0E0F  3400               	retlw	0
    87                           	global	_PORTB
    88  0006                     _PORTB	set	6
    89                           	global	_RA0
    90  0028                     _RA0	set	40
    91                           	global	_RA1
    92  0029                     _RA1	set	41
    93                           	global	_RA4
    94  002C                     _RA4	set	44
    95                           	global	_RC1
    96  0039                     _RC1	set	57
    97                           	global	_RC2
    98  003A                     _RC2	set	58
    99                           	global	_RC3
   100  003B                     _RC3	set	59
   101                           	global	_RC4
   102  003C                     _RC4	set	60
   103                           	global	_RC5
   104  003D                     _RC5	set	61
   105                           	global	_ADCON1
   106  009F                     _ADCON1	set	159
   107                           	global	_TRISA
   108  0085                     _TRISA	set	133
   109                           	global	_TRISB
   110  0086                     _TRISB	set	134
   111                           	global	_TRISC
   112  0087                     _TRISC	set	135
   113                           psect	strings,class=STRING,delta=2
   114                           global __pstrings
   115  0003                     __pstrings:
   116                           ;	global	stringdir,stringtab,__stringbase
   117  0003                     stringtab:
   118                           ;	String table - string pointers are 1 byte each
   119  0003                     stringcode:stringdir:
      + 0003                     stringdir:	
   120  0003  3000               movlw high(stringdir)
   121  0004  008A               movwf pclath
   122  0005  0804               movf fsr,w
   123  0006  0A84               incf fsr
   124  0007  0782               	addwf pc
   125  0008                     __stringbase:
   126  0008  3400               	retlw	0
   127                           psect	strings
   128                           	
   129  0009                     STR_8:	
   130  0009  3455               	retlw	85	;'U'
   131  000A  3473               	retlw	115	;'s'
   132  000B  3465               	retlw	101	;'e'
   133  000C  3472               	retlw	114	;'r'
   134  000D  3420               	retlw	32	;' '
   135  000E  3469               	retlw	105	;'i'
   136  000F  3464               	retlw	100	;'d'
   137  0010  3465               	retlw	101	;'e'
   138  0011  346E               	retlw	110	;'n'
   139  0012  3474               	retlw	116	;'t'
   140  0013  3469               	retlw	105	;'i'
   141  0014  3466               	retlw	102	;'f'
   142  0015  3469               	retlw	105	;'i'
   143  0016  3465               	retlw	101	;'e'
   144  0017  3464               	retlw	100	;'d'
   145  0018  342E               	retlw	46	;'.'
   146  0019  3420               	retlw	32	;' '
   147  001A  3400               	retlw	0
   148                           psect	strings
   149                           	
   150  001B                     STR_5:	
   151  001B  3420               	retlw	32	;' '
   152  001C  3420               	retlw	32	;' '
   153  001D  3420               	retlw	32	;' '
   154  001E  3420               	retlw	32	;' '
   155  001F  3453               	retlw	83	;'S'
   156  0020  3461               	retlw	97	;'a'
   157  0021  3476               	retlw	118	;'v'
   158  0022  3465               	retlw	101	;'e'
   159  0023  3420               	retlw	32	;' '
   160  0024  346D               	retlw	109	;'m'
   161  0025  346F               	retlw	111	;'o'
   162  0026  3464               	retlw	100	;'d'
   163  0027  3465               	retlw	101	;'e'
   164  0028  3420               	retlw	32	;' '
   165  0029  3420               	retlw	32	;' '
   166  002A  3420               	retlw	32	;' '
   167  002B  3400               	retlw	0
   168                           psect	strings
   169                           	
   170  002C                     STR_14:	
   171  002C  3455               	retlw	85	;'U'
   172  002D  3473               	retlw	115	;'s'
   173  002E  3465               	retlw	101	;'e'
   174  002F  3472               	retlw	114	;'r'
   175  0030  3420               	retlw	32	;' '
   176  0031  346E               	retlw	110	;'n'
   177  0032  346F               	retlw	111	;'o'
   178  0033  3474               	retlw	116	;'t'
   179  0034  3420               	retlw	32	;' '
   180  0035  3466               	retlw	102	;'f'
   181  0036  346F               	retlw	111	;'o'
   182  0037  3475               	retlw	117	;'u'
   183  0038  346E               	retlw	110	;'n'
   184  0039  3464               	retlw	100	;'d'
   185  003A  342E               	retlw	46	;'.'
   186  003B  3400               	retlw	0
   187                           psect	strings
   188                           	
   189  003C                     STR_6:	
   190  003C  3420               	retlw	32	;' '
   191  003D  3450               	retlw	80	;'P'
   192  003E  346C               	retlw	108	;'l'
   193  003F  3461               	retlw	97	;'a'
   194  0040  3463               	retlw	99	;'c'
   195  0041  3465               	retlw	101	;'e'
   196  0042  3420               	retlw	32	;' '
   197  0043  3479               	retlw	121	;'y'
   198  0044  346F               	retlw	111	;'o'
   199  0045  3475               	retlw	117	;'u'
   200  0046  3472               	retlw	114	;'r'
   201  0047  3420               	retlw	32	;' '
   202  0048  3474               	retlw	116	;'t'
   203  0049  3461               	retlw	97	;'a'
   204  004A  3467               	retlw	103	;'g'
   205  004B  3400               	retlw	0
   206                           psect	strings
   207                           	
   208  004C                     STR_12:	
   209  004C  3455               	retlw	85	;'U'
   210  004D  3473               	retlw	115	;'s'
   211  004E  3465               	retlw	101	;'e'
   212  004F  3472               	retlw	114	;'r'
   213  0050  3420               	retlw	32	;' '
   214  0051  3449               	retlw	73	;'I'
   215  0052  3444               	retlw	68	;'D'
   216  0053  3420               	retlw	32	;' '
   217  0054  3473               	retlw	115	;'s'
   218  0055  3461               	retlw	97	;'a'
   219  0056  3476               	retlw	118	;'v'
   220  0057  3465               	retlw	101	;'e'
   221  0058  3464               	retlw	100	;'d'
   222  0059  342E               	retlw	46	;'.'
   223  005A  3400               	retlw	0
   224                           psect	strings
   225                           	
   226  005B                     STR_9:	
   227  005B  3444               	retlw	68	;'D'
   228  005C  346F               	retlw	111	;'o'
   229  005D  346F               	retlw	111	;'o'
   230  005E  3472               	retlw	114	;'r'
   231  005F  3420               	retlw	32	;' '
   232  0060  346C               	retlw	108	;'l'
   233  0061  346F               	retlw	111	;'o'
   234  0062  3463               	retlw	99	;'c'
   235  0063  346B               	retlw	107	;'k'
   236  0064  3420               	retlw	32	;' '
   237  0065  3477               	retlw	119	;'w'
   238  0066  3469               	retlw	105	;'i'
   239  0067  346C               	retlw	108	;'l'
   240  0068  346C               	retlw	108	;'l'
   241  0069  3400               	retlw	0
   242                           psect	strings
   243                           	
   244  006A                     STR_10:	
   245  006A  3462               	retlw	98	;'b'
   246  006B  3465               	retlw	101	;'e'
   247  006C  3420               	retlw	32	;' '
   248  006D  346C               	retlw	108	;'l'
   249  006E  346F               	retlw	111	;'o'
   250  006F  3463               	retlw	99	;'c'
   251  0070  346B               	retlw	107	;'k'
   252  0071  3465               	retlw	101	;'e'
   253  0072  3464               	retlw	100	;'d'
   254  0073  3420               	retlw	32	;' '
   255  0074  3469               	retlw	105	;'i'
   256  0075  346E               	retlw	110	;'n'
   257  0076  3420               	retlw	32	;' '
   258  0077  3400               	retlw	0
   259                           psect	strings
   260                           	
   261  0078                     STR_4:	
   262  0078  346F               	retlw	111	;'o'
   263  0079  346E               	retlw	110	;'n'
   264  007A  3420               	retlw	32	;' '
   265  007B  3474               	retlw	116	;'t'
   266  007C  3468               	retlw	104	;'h'
   267  007D  3465               	retlw	101	;'e'
   268  007E  3420               	retlw	32	;' '
   269  007F  3472               	retlw	114	;'r'
   270  0080  3465               	retlw	101	;'e'
   271  0081  3461               	retlw	97	;'a'
   272  0082  3464               	retlw	100	;'d'
   273  0083  3465               	retlw	101	;'e'
   274  0084  3472               	retlw	114	;'r'
   275  0085  3400               	retlw	0
   276                           psect	strings
   277                           	
   278  0086                     STR_1:	
   279  0086  3420               	retlw	32	;' '
   280  0087  3452               	retlw	82	;'R'
   281  0088  3446               	retlw	70	;'F'
   282  0089  3449               	retlw	73	;'I'
   283  008A  3444               	retlw	68	;'D'
   284  008B  3420               	retlw	32	;' '
   285  008C  3464               	retlw	100	;'d'
   286  008D  346F               	retlw	111	;'o'
   287  008E  346F               	retlw	111	;'o'
   288  008F  3472               	retlw	114	;'r'
   289  0090  3400               	retlw	0
   290                           psect	strings
   291                           	
   292  0091                     STR_2:	
   293  0091  3420               	retlw	32	;' '
   294  0092  3473               	retlw	115	;'s'
   295  0093  3465               	retlw	101	;'e'
   296  0094  3463               	retlw	99	;'c'
   297  0095  3475               	retlw	117	;'u'
   298  0096  3472               	retlw	114	;'r'
   299  0097  3469               	retlw	105	;'i'
   300  0098  3474               	retlw	116	;'t'
   301  0099  3479               	retlw	121	;'y'
   302  009A  3400               	retlw	0
   303                           psect	strings
   304                           	
   305  009B                     STR_7:	
   306  009B  3449               	retlw	73	;'I'
   307  009C  3444               	retlw	68	;'D'
   308  009D  3420               	retlw	32	;' '
   309  009E  346E               	retlw	110	;'n'
   310  009F  346F               	retlw	111	;'o'
   311  00A0  343A               	retlw	58	;':'
   312  00A1  3420               	retlw	32	;' '
   313  00A2  3400               	retlw	0
   314                           psect	strings
   315  003D                     STR_3	equ	STR_6+1
   316  009B                     STR_11	equ	STR_7+0
   317  009B                     STR_13	equ	STR_7+0
   318                           	file	"PR 25.as"
   319                           	line	#
   320                           psect cinit,class=CODE,delta=2
   321                           global start_initialization
   322  0ED0                     start_initialization:
   323                           
   324                           psect	dataBANK0,class=BANK0,space=1
   325                           global __pdataBANK0
   326  0053                     __pdataBANK0:
   327                           	file	"C:\Users\Phang\Desktop\9.80\PR 25\PR25.c"
   328                           	line	57
   329  0053                     main@F483:
   330  0053                            ds      4
   331                           
   332                           psect	dataBANK0
   333                           	file	"C:\Users\Phang\Desktop\9.80\PR 25\PR25.c"
   334                           	line	56
   335  0057                     main@F481:
   336  0057                            ds      2
   337                           
   338                           ; Initialize objects allocated to BANK0
   339                           	global __pidataBANK0
   340                           psect cinit,class=CODE,delta=2
   341  0ED0  1283               	bcf	status, 5	;RP0=0, select bank0
   342  0ED1  1303               	bcf	status, 6	;RP1=0, select bank0
   343  0ED2  120A  158A  260A   	fcall	__pidataBANK0+0		;fetch initializer
              120A  158A         
   344  0ED7  00D3               	movwf	__pdataBANK0+0&07fh		
   345  0ED8  120A  158A  260B   	fcall	__pidataBANK0+1		;fetch initializer
              120A  158A         
   346  0EDD  00D4               	movwf	__pdataBANK0+1&07fh		
   347  0EDE  120A  158A  260C   	fcall	__pidataBANK0+2		;fetch initializer
              120A  158A         
   348  0EE3  00D5               	movwf	__pdataBANK0+2&07fh		
   349  0EE4  120A  158A  260D   	fcall	__pidataBANK0+3		;fetch initializer
              120A  158A         
   350  0EE9  00D6               	movwf	__pdataBANK0+3&07fh		
   351  0EEA  120A  158A  260E   	fcall	__pidataBANK0+4		;fetch initializer
              120A  158A         
   352  0EEF  00D7               	movwf	__pdataBANK0+4&07fh		
   353  0EF0  120A  158A  260F   	fcall	__pidataBANK0+5		;fetch initializer
              120A  158A         
   354  0EF5  00D8               	movwf	__pdataBANK0+5&07fh		
   355                           psect cinit,class=CODE,delta=2
   356                           global end_of_initialization
   357                           
   358                           ;End of C runtime variable initialization code
   359                           
   360  0EF6                     end_of_initialization:
   361  0EF6  0183               clrf status
   362  0EF7  120A  118A  2B4A   ljmp _main	;jump to C main() function
   363                           psect	cstackCOMMON,class=COMMON,space=1
   364                           global __pcstackCOMMON
   365  0070                     __pcstackCOMMON:
   366                           	global	?_init
   367  0070                     ?_init:	; 0 bytes @ 0x0
   368                           	global	?_lcd_clr
   369  0070                     ?_lcd_clr:	; 0 bytes @ 0x0
   370                           	global	?_lcd_goto
   371  0070                     ?_lcd_goto:	; 0 bytes @ 0x0
   372                           	global	?_send_string
   373  0070                     ?_send_string:	; 0 bytes @ 0x0
   374                           	global	?_delay
   375  0070                     ?_delay:	; 0 bytes @ 0x0
   376                           	global	?_send_config
   377  0070                     ?_send_config:	; 0 bytes @ 0x0
   378                           	global	?_e_pulse
   379  0070                     ?_e_pulse:	; 0 bytes @ 0x0
   380                           	global	?_main
   381  0070                     ?_main:	; 0 bytes @ 0x0
   382                           	global	?_send_char
   383  0070                     ?_send_char:	; 0 bytes @ 0x0
   384                           	global	?___llmod
   385  0070                     ?___llmod:	; 4 bytes @ 0x0
   386                           	global	?___lldiv
   387  0070                     ?___lldiv:	; 4 bytes @ 0x0
   388                           	global	delay@data
   389  0070                     delay@data:	; 4 bytes @ 0x0
   390                           	global	___llmod@divisor
   391  0070                     ___llmod@divisor:	; 4 bytes @ 0x0
   392                           	global	___lldiv@divisor
   393  0070                     ___lldiv@divisor:	; 4 bytes @ 0x0
   394  0070                     	ds	4
   395                           	global	??_delay
   396  0074                     ??_delay:	; 0 bytes @ 0x4
   397                           	global	delay@i
   398  0074                     delay@i:	; 2 bytes @ 0x4
   399                           	global	___llmod@dividend
   400  0074                     ___llmod@dividend:	; 4 bytes @ 0x4
   401                           	global	___lldiv@dividend
   402  0074                     ___lldiv@dividend:	; 4 bytes @ 0x4
   403  0074                     	ds	2
   404                           	global	??_send_config
   405  0076                     ??_send_config:	; 0 bytes @ 0x6
   406                           	global	??_e_pulse
   407  0076                     ??_e_pulse:	; 0 bytes @ 0x6
   408                           	global	??_send_char
   409  0076                     ??_send_char:	; 0 bytes @ 0x6
   410                           	global	send_config@data
   411  0076                     send_config@data:	; 1 bytes @ 0x6
   412                           	global	send_char@data
   413  0076                     send_char@data:	; 1 bytes @ 0x6
   414  0076                     	ds	1
   415                           	global	??_init
   416  0077                     ??_init:	; 0 bytes @ 0x7
   417                           	global	??_lcd_clr
   418  0077                     ??_lcd_clr:	; 0 bytes @ 0x7
   419                           	global	??_lcd_goto
   420  0077                     ??_lcd_goto:	; 0 bytes @ 0x7
   421                           	global	??_send_string
   422  0077                     ??_send_string:	; 0 bytes @ 0x7
   423  0077                     	ds	1
   424                           	global	??___llmod
   425  0078                     ??___llmod:	; 0 bytes @ 0x8
   426                           	global	??___lldiv
   427  0078                     ??___lldiv:	; 0 bytes @ 0x8
   428                           	global	lcd_goto@data
   429  0078                     lcd_goto@data:	; 1 bytes @ 0x8
   430                           	global	send_string@s
   431  0078                     send_string@s:	; 1 bytes @ 0x8
   432  0078                     	ds	1
   433                           	global	___llmod@counter
   434  0079                     ___llmod@counter:	; 1 bytes @ 0x9
   435                           	global	___lldiv@quotient
   436  0079                     ___lldiv@quotient:	; 4 bytes @ 0x9
   437  0079                     	ds	4
   438                           	global	___lldiv@counter
   439  007D                     ___lldiv@counter:	; 1 bytes @ 0xD
   440  007D                     	ds	1
   441                           	global	??_send_dec
   442  007E                     ??_send_dec:	; 0 bytes @ 0xE
   443                           psect	cstackBANK0,class=BANK0,space=1
   444                           global __pcstackBANK0
   445  0020                     __pcstackBANK0:
   446                           	global	?_send_dec
   447  0020                     ?_send_dec:	; 0 bytes @ 0x0
   448                           	global	send_dec@data
   449  0020                     send_dec@data:	; 4 bytes @ 0x0
   450  0020                     	ds	4
   451                           	global	send_dec@num_dig
   452  0024                     send_dec@num_dig:	; 1 bytes @ 0x4
   453  0024                     	ds	1
   454                           	global	??_main
   455  0025                     ??_main:	; 0 bytes @ 0x5
   456  0025                     	ds	5
   457                           	global	main@data
   458  002A                     main@data:	; 26 bytes @ 0xA
   459  002A                     	ds	26
   460                           	global	main@database
   461  0044                     main@database:	; 1 bytes @ 0x24
   462  0044                     	ds	1
   463                           	global	main@id2
   464  0045                     main@id2:	; 4 bytes @ 0x25
   465  0045                     	ds	4
   466                           	global	main@id1
   467  0049                     main@id1:	; 2 bytes @ 0x29
   468  0049                     	ds	2
   469                           	global	main@a
   470  004B                     main@a:	; 1 bytes @ 0x2B
   471  004B                     	ds	1
   472                           	global	main@mode
   473  004C                     main@mode:	; 1 bytes @ 0x2C
   474  004C                     	ds	1
   475                           	global	main@b
   476  004D                     main@b:	; 1 bytes @ 0x2D
   477  004D                     	ds	1
   478                           	global	main@convert2
   479  004E                     main@convert2:	; 2 bytes @ 0x2E
   480  004E                     	ds	2
   481                           	global	main@convert1
   482  0050                     main@convert1:	; 1 bytes @ 0x30
   483  0050                     	ds	1
   484                           	global	main@repeat
   485  0051                     main@repeat:	; 1 bytes @ 0x31
   486  0051                     	ds	1
   487                           	global	main@i
   488  0052                     main@i:	; 1 bytes @ 0x32
   489  0052                     	ds	1
   490 ;;Data sizes: Strings 154, constant 0, data 6, bss 0, persistent 0 stack 0
   491 ;;Auto spaces:   Size  Autos    Used
   492 ;; COMMON          14     14      14
   493 ;; BANK0           80     51      57
   494 ;; BANK1           80      0       0
   495 ;; BANK3           96      0       0
   496 ;; BANK2           96      0       0
   497                           
   498 ;;
   499 ;; Pointer list with targets:
   500                           
   501 ;; ?___lldiv	unsigned long  size(1) Largest target is 0
   502 ;;
   503 ;; ?___llmod	unsigned long  size(1) Largest target is 0
   504 ;;
   505 ;; send_string@s	PTR const unsigned char  size(1) Largest target is 18
   506 ;;		 -> STR_14(CODE[16]), STR_13(CODE[8]), STR_12(CODE[15]), STR_11(CODE[8]), 
   507 ;;		 -> STR_10(CODE[14]), STR_9(CODE[15]), STR_8(CODE[18]), STR_7(CODE[8]), 
   508 ;;		 -> STR_6(CODE[16]), STR_5(CODE[17]), STR_4(CODE[14]), STR_3(CODE[15]), 
   509 ;;		 -> STR_2(CODE[10]), STR_1(CODE[11]), 
   510 ;;
   511                           
   512                           
   513 ;;
   514 ;; Critical Paths under _main in COMMON
   515 ;;
   516 ;;   _send_dec->___lldiv
   517 ;;   _send_string->_send_char
   518 ;;   _lcd_goto->_send_config
   519 ;;   _lcd_clr->_send_config
   520 ;;   _init->_send_config
   521 ;;   _send_char->_delay
   522 ;;   _send_config->_delay
   523 ;;   _e_pulse->_delay
   524 ;;
   525 ;; Critical Paths under _main in BANK0
   526 ;;
   527 ;;   _main->_send_dec
   528 ;;
   529 ;; Critical Paths under _main in BANK1
   530 ;;
   531 ;;   None.
   532 ;;
   533 ;; Critical Paths under _main in BANK3
   534 ;;
   535 ;;   None.
   536 ;;
   537 ;; Critical Paths under _main in BANK2
   538 ;;
   539 ;;   None.
   540                           
   541 ;;
   542 ;;Main: autosize = 0, tempsize = 5, incstack = 0, save=0
   543 ;;
   544                           
   545 ;;
   546 ;;Call Graph Tables:
   547 ;;
   548 ;; ---------------------------------------------------------------------------------
   549 ;; (Depth) Function   	        Calls       Base Space   Used Autos Params    Refs
   550 ;; ---------------------------------------------------------------------------------
   551 ;; (0) _main                                                46    46      0    3731
   552 ;;                                              5 BANK0     46    46      0
   553 ;;                               _init
   554 ;;                            _lcd_clr
   555 ;;                           _lcd_goto
   556 ;;                        _send_string
   557 ;;                              _delay
   558 ;;                           _send_dec
   559 ;; ---------------------------------------------------------------------------------
   560 ;; (1) _send_dec                                             5     0      5    1149
   561 ;;                                              0 BANK0      5     0      5
   562 ;;                            ___llmod
   563 ;;                            ___lldiv
   564 ;;                          _send_char
   565 ;; ---------------------------------------------------------------------------------
   566 ;; (1) _send_string                                          2     2      0     225
   567 ;;                                              7 COMMON     2     2      0
   568 ;;                          _send_char
   569 ;; ---------------------------------------------------------------------------------
   570 ;; (1) _lcd_goto                                             2     2      0     247
   571 ;;                                              7 COMMON     2     2      0
   572 ;;                        _send_config
   573 ;; ---------------------------------------------------------------------------------
   574 ;; (1) _lcd_clr                                              0     0      0     226
   575 ;;                        _send_config
   576 ;;                              _delay
   577 ;; ---------------------------------------------------------------------------------
   578 ;; (1) _init                                                 0     0      0     226
   579 ;;                        _send_config
   580 ;;                              _delay
   581 ;; ---------------------------------------------------------------------------------
   582 ;; (2) _send_char                                            1     1      0     158
   583 ;;                                              6 COMMON     1     1      0
   584 ;;                              _delay
   585 ;;                            _e_pulse
   586 ;; ---------------------------------------------------------------------------------
   587 ;; (2) _send_config                                          1     1      0     158
   588 ;;                                              6 COMMON     1     1      0
   589 ;;                              _delay
   590 ;;                            _e_pulse
   591 ;; ---------------------------------------------------------------------------------
   592 ;; (3) _e_pulse                                              0     0      0      68
   593 ;;                              _delay
   594 ;; ---------------------------------------------------------------------------------
   595 ;; (2) ___lldiv                                             14     6      8     162
   596 ;;                                              0 COMMON    14     6      8
   597 ;; ---------------------------------------------------------------------------------
   598 ;; (2) ___llmod                                             10     2      8     159
   599 ;;                                              0 COMMON    10     2      8
   600 ;; ---------------------------------------------------------------------------------
   601 ;; (4) _delay                                                6     2      4      68
   602 ;;                                              0 COMMON     6     2      4
   603 ;; ---------------------------------------------------------------------------------
   604 ;; Estimated maximum stack depth 4
   605 ;; ---------------------------------------------------------------------------------
   606                           
   607 ;; Call Graph Graphs:
   608                           
   609 ;; _main (ROOT)
   610 ;;   _init
   611 ;;     _send_config
   612 ;;       _delay
   613 ;;       _e_pulse
   614 ;;         _delay
   615 ;;     _delay
   616 ;;   _lcd_clr
   617 ;;     _send_config
   618 ;;       _delay
   619 ;;       _e_pulse
   620 ;;         _delay
   621 ;;     _delay
   622 ;;   _lcd_goto
   623 ;;     _send_config
   624 ;;       _delay
   625 ;;       _e_pulse
   626 ;;         _delay
   627 ;;   _send_string
   628 ;;     _send_char
   629 ;;       _delay
   630 ;;       _e_pulse
   631 ;;         _delay
   632 ;;   _delay
   633 ;;   _send_dec
   634 ;;     ___llmod
   635 ;;     ___lldiv
   636 ;;     _send_char
   637 ;;       _delay
   638 ;;       _e_pulse
   639 ;;         _delay
   640 ;;
   641                           
   642 ;; Address spaces:
   643                           
   644 ;;Name               Size   Autos  Total    Cost      Usage
   645 ;;BANK3               60      0       0       9        0.0%
   646 ;;BITBANK3            60      0       0       8        0.0%
   647 ;;SFR3                 0      0       0       4        0.0%
   648 ;;BITSFR3              0      0       0       4        0.0%
   649 ;;BANK2               60      0       0      11        0.0%
   650 ;;BITBANK2            60      0       0      10        0.0%
   651 ;;SFR2                 0      0       0       5        0.0%
   652 ;;BITSFR2              0      0       0       5        0.0%
   653 ;;SFR1                 0      0       0       2        0.0%
   654 ;;BITSFR1              0      0       0       2        0.0%
   655 ;;BANK1               50      0       0       7        0.0%
   656 ;;BITBANK1            50      0       0       6        0.0%
   657 ;;CODE                 0      0       0       0        0.0%
   658 ;;DATA                 0      0      4B      12        0.0%
   659 ;;ABS                  0      0      47       3        0.0%
   660 ;;NULL                 0      0       0       0        0.0%
   661 ;;STACK                0      0       4       2        0.0%
   662 ;;BANK0               50     33      39       5       71.3%
   663 ;;BITBANK0            50      0       0       4        0.0%
   664 ;;SFR0                 0      0       0       1        0.0%
   665 ;;BITSFR0              0      0       0       1        0.0%
   666 ;;COMMON               E      E       E       1      100.0%
   667 ;;BITCOMMON            E      0       0       0        0.0%
   668 ;;EEDATA             100      0       0       0        0.0%
   669                           
   670                           	global	_main
   671                           psect	maintext,global,class=CODE,delta=2
   672                           global __pmaintext
   673  034A                     __pmaintext:
   674                           
   675 ;; *************** function _main *****************
   676 ;; Defined at:
   677 ;;		line 50 in file "C:\Users\Phang\Desktop\9.80\PR 25\PR25.c"
   678 ;; Parameters:    Size  Location     Type
   679 ;;		None
   680 ;; Auto vars:     Size  Location     Type
   681 ;;  data           26   10[BANK0 ] unsigned char [26]
   682 ;;  id2             4   37[BANK0 ] unsigned int [2]
   683 ;;  convert2        2   46[BANK0 ] unsigned int 
   684 ;;  id1             2   41[BANK0 ] unsigned char [2]
   685 ;;  i               1   50[BANK0 ] unsigned char 
   686 ;;  repeat          1   49[BANK0 ] unsigned char 
   687 ;;  convert1        1   48[BANK0 ] unsigned char 
   688 ;;  b               1   45[BANK0 ] unsigned char 
   689 ;;  mode            1   44[BANK0 ] unsigned char 
   690 ;;  a               1   43[BANK0 ] unsigned char 
   691 ;;  database        1   36[BANK0 ] unsigned char 
   692 ;; Return value:  Size  Location     Type
   693 ;;		None               void
   694 ;; Registers used:
   695 ;;		wreg, fsr0l, fsr0h, status,2, status,0, btemp+1, pclath, cstack
   696 ;; Tracked objects:
   697 ;;		On entry : 17F/0
   698 ;;		On exit  : 0/0
   699 ;;		Unchanged: 0/0
   700 ;; Data sizes:     COMMON   BANK0   BANK1   BANK3   BANK2
   701 ;;      Params:         0       0       0       0       0
   702 ;;      Locals:         0      41       0       0       0
   703 ;;      Temps:          0       5       0       0       0
   704 ;;      Totals:         0      46       0       0       0
   705 ;;Total ram usage:       46 bytes
   706 ;; Hardware stack levels required when called:    4
   707 ;; This function calls:
   708 ;;		_init
   709 ;;		_lcd_clr
   710 ;;		_lcd_goto
   711 ;;		_send_string
   712 ;;		_delay
   713 ;;		_send_dec
   714 ;; This function is called by:
   715 ;;		Startup code after reset
   716 ;; This function uses a non-reentrant model
   717 ;;
   718                           psect	maintext
   719                           	file	"C:\Users\Phang\Desktop\9.80\PR 25\PR25.c"
   720                           	line	50
   721                           	global	__size_of_main
   722  04B6                     	__size_of_main	equ	__end_of_main-_main
   723                           	
   724  034A                     _main:	
   725                           	opt	stack 4
   726                           ; Regs used in _main: [wreg-fsr0h+status,2+status,0+btemp+1+pclath+cstack]
   727                           	line	53
   728                           	
   729  034A                     l2752:	
   730                           ;PR25.c: 51: unsigned char i, repeat, a, b, database;
   731                           ;PR25.c: 52: unsigned char data[26];
   732                           ;PR25.c: 53: unsigned char convert1=0;
   733  034A  1003               	clrc
   734  034B  3000               	movlw	0
   735  034C  1803               	btfsc	status,0
   736  034D  3001               	movlw	1
   737  034E  1283               	bcf	status, 5	;RP0=0, select bank0
   738  034F  1303               	bcf	status, 6	;RP1=0, select bank0
   739  0350  00D0               	movwf	(main@convert1)
   740                           	line	54
   741                           	
   742  0351                     l2754:	
   743                           ;PR25.c: 54: unsigned int convert2=0;
   744  0351  3000               	movlw	low(0)
   745  0352  00CE               	movwf	(main@convert2)
   746  0353  3000               	movlw	high(0)
   747  0354  00CF               	movwf	((main@convert2))+1
   748                           	line	55
   749                           	
   750  0355                     l2756:	
   751                           ;PR25.c: 55: unsigned char mode=0;
   752  0355  1003               	clrc
   753  0356  3000               	movlw	0
   754  0357  1803               	btfsc	status,0
   755  0358  3001               	movlw	1
   756  0359  00CC               	movwf	(main@mode)
   757                           	line	56
   758                           	
   759  035A                     l2758:	
   760                           ;PR25.c: 56: unsigned char id1[2]={127,0};
   761  035A  0858               	movf	(main@F481+1),w
   762  035B  01CA               	clrf	(main@id1+1)
   763  035C  07CA               	addwf	(main@id1+1)
   764  035D  0857               	movf	(main@F481),w
   765  035E  01C9               	clrf	(main@id1)
   766  035F  07C9               	addwf	(main@id1)
   767                           
   768                           	line	57
   769                           	
   770  0360                     l2760:	
   771                           ;PR25.c: 57: unsigned int id2[2]={22449,0};
   772  0360  0856               	movf	(main@F483+3),w
   773  0361  00C8               	movwf	(main@id2+3)
   774  0362  0855               	movf	(main@F483+2),w
   775  0363  00C7               	movwf	(main@id2+2)
   776  0364  0854               	movf	(main@F483+1),w
   777  0365  00C6               	movwf	(main@id2+1)
   778  0366  0853               	movf	(main@F483),w
   779  0367  00C5               	movwf	(main@id2)
   780                           
   781                           	line	59
   782                           	
   783  0368                     l2762:	
   784                           ;PR25.c: 59: init();
   785  0368  120A  158A  26FA   	fcall	_init
              120A  118A         
   786                           	line	60
   787                           	
   788  036D                     l2764:	
   789                           ;PR25.c: 60: lcd_clr();
   790  036D  120A  118A  20A4   	fcall	_lcd_clr
              120A  118A         
   791                           	line	61
   792                           ;PR25.c: 61: id1[1]=0;
   793  0372  1003               	clrc
   794  0373  3000               	movlw	0
   795  0374  1803               	btfsc	status,0
   796  0375  3001               	movlw	1
   797  0376  1283               	bcf	status, 5	;RP0=0, select bank0
   798  0377  1303               	bcf	status, 6	;RP1=0, select bank0
   799  0378  00CA               	movwf	0+(main@id1)+01h
   800                           	line	62
   801                           	
   802  0379                     l2766:	
   803                           ;PR25.c: 62: id2[1]=0;
   804  0379  3000               	movlw	low(0)
   805  037A  00C7               	movwf	0+(main@id2)+02h
   806  037B  3000               	movlw	high(0)
   807  037C  00C8               	movwf	(0+(main@id2)+02h)+1
   808                           	line	63
   809                           	
   810  037D                     l2768:	
   811                           ;PR25.c: 63: RC4=1;
   812  037D  1607               	bsf	(60/8),(60)&7
   813                           	line	64
   814                           	
   815  037E                     l2770:	
   816                           ;PR25.c: 64: lcd_goto(0);
   817  037E  3000               	movlw	(0)
   818  037F  120A  158A  2642   	fcall	_lcd_goto
              120A  118A         
   819                           	line	65
   820                           	
   821  0384                     l2772:	
   822                           ;PR25.c: 65: send_string (" RFID door");
   823  0384  307E               	movlw	((STR_1-__stringbase))&0ffh
   824  0385  120A  158A  2680   	fcall	_send_string
              120A  118A         
   825                           	line	66
   826                           	
   827  038A                     l2774:	
   828                           ;PR25.c: 66: lcd_goto(20);
   829  038A  3014               	movlw	(014h)
   830  038B  120A  158A  2642   	fcall	_lcd_goto
              120A  118A         
   831                           	line	67
   832                           	
   833  0390                     l2776:	
   834                           ;PR25.c: 67: send_string (" security");
   835  0390  3089               	movlw	((STR_2-__stringbase))&0ffh
   836  0391  120A  158A  2680   	fcall	_send_string
              120A  118A         
   837                           	line	69
   838                           	
   839  0396                     l2778:	
   840                           ;PR25.c: 69: for(repeat=12; repeat>0; repeat--)
   841  0396  300C               	movlw	(0Ch)
   842  0397  1283               	bcf	status, 5	;RP0=0, select bank0
   843  0398  1303               	bcf	status, 6	;RP1=0, select bank0
   844  0399  00A5               	movwf	(??_main+0)+0
   845  039A  0825               	movf	(??_main+0)+0,w
   846  039B  00D1               	movwf	(main@repeat)
   847                           	
   848  039C                     l2780:	
   849  039C  08D1               	movf	(main@repeat),f
   850  039D  1D03               	skipz
   851  039E  2BA0               	goto	u3171
   852  039F  2BA1               	goto	u3170
   853  03A0                     u3171:
   854  03A0  2BA3               	goto	l2784
   855  03A1                     u3170:
   856  03A1  2BBB               	goto	l2790
   857                           	
   858  03A2                     l2782:	
   859  03A2  2BBB               	goto	l2790
   860                           	line	70
   861                           	
   862  03A3                     l515:	
   863                           	line	71
   864                           	
   865  03A3                     l2784:	
   866                           ;PR25.c: 70: {
   867                           ;PR25.c: 71: delay(1000000);
   868  03A3  3000               	movlw	0
   869  03A4  00F3               	movwf	(?_delay+3)
   870  03A5  300F               	movlw	0Fh
   871  03A6  00F2               	movwf	(?_delay+2)
   872  03A7  3042               	movlw	042h
   873  03A8  00F1               	movwf	(?_delay+1)
   874  03A9  3040               	movlw	040h
   875  03AA  00F0               	movwf	(?_delay)
   876                           
   877  03AB  120A  158A  26A6   	fcall	_delay
              120A  118A         
   878                           	line	69
   879                           	
   880  03B0                     l2786:	
   881  03B0  3001               	movlw	low(01h)
   882  03B1  1283               	bcf	status, 5	;RP0=0, select bank0
   883  03B2  1303               	bcf	status, 6	;RP1=0, select bank0
   884  03B3  02D1               	subwf	(main@repeat),f
   885                           	
   886  03B4                     l2788:	
   887  03B4  08D1               	movf	(main@repeat),f
   888  03B5  1D03               	skipz
   889  03B6  2BB8               	goto	u3181
   890  03B7  2BB9               	goto	u3180
   891  03B8                     u3181:
   892  03B8  2BA3               	goto	l2784
   893  03B9                     u3180:
   894  03B9  2BBB               	goto	l2790
   895                           	
   896  03BA                     l516:	
   897  03BA  2BBB               	goto	l2790
   898                           	line	74
   899                           ;PR25.c: 72: }
   900                           ;PR25.c: 74: while(1)
   901                           	
   902  03BB                     l517:	
   903                           	line	76
   904                           	
   905  03BB                     l2790:	
   906                           ;PR25.c: 75: {
   907                           ;PR25.c: 76: convert1=0;
   908  03BB  1003               	clrc
   909  03BC  3000               	movlw	0
   910  03BD  1803               	btfsc	status,0
   911  03BE  3001               	movlw	1
   912  03BF  00D0               	movwf	(main@convert1)
   913                           	line	77
   914                           	
   915  03C0                     l2792:	
   916                           ;PR25.c: 77: convert2=0;
   917  03C0  3000               	movlw	low(0)
   918  03C1  00CE               	movwf	(main@convert2)
   919  03C2  3000               	movlw	high(0)
   920  03C3  00CF               	movwf	((main@convert2))+1
   921                           	line	79
   922                           	
   923  03C4                     l2794:	
   924                           ;PR25.c: 79: lcd_clr();
   925  03C4  120A  118A  20A4   	fcall	_lcd_clr
              120A  118A         
   926                           	line	80
   927                           	
   928  03C9                     l2796:	
   929                           ;PR25.c: 80: lcd_goto(0);
   930  03C9  3000               	movlw	(0)
   931  03CA  120A  158A  2642   	fcall	_lcd_goto
              120A  118A         
   932                           	line	81
   933                           	
   934  03CF                     l2798:	
   935                           ;PR25.c: 81: send_string ("Place your tag");
   936  03CF  3035               	movlw	((STR_3-__stringbase))&0ffh
   937  03D0  120A  158A  2680   	fcall	_send_string
              120A  118A         
   938                           	line	82
   939                           	
   940  03D5                     l2800:	
   941                           ;PR25.c: 82: lcd_goto(20);
   942  03D5  3014               	movlw	(014h)
   943  03D6  120A  158A  2642   	fcall	_lcd_goto
              120A  118A         
   944                           	line	83
   945                           	
   946  03DB                     l2802:	
   947                           ;PR25.c: 83: send_string ("on the reader");
   948  03DB  3070               	movlw	((STR_4-__stringbase))&0ffh
   949  03DC  120A  158A  2680   	fcall	_send_string
              120A  118A         
   950                           	line	85
   951                           ;PR25.c: 85: while(mode==0)
   952  03E1  2BF9               	goto	l518
   953                           	
   954  03E2                     l519:	
   955                           	line	87
   956                           ;PR25.c: 86: {
   957                           ;PR25.c: 87: if((RC1==0)||(RC2==0)) mode=1;
   958  03E2  1C87               	btfss	(57/8),(57)&7
   959  03E3  2BE5               	goto	u3191
   960  03E4  2BE6               	goto	u3190
   961  03E5                     u3191:
   962  03E5  2BEB               	goto	l2806
   963  03E6                     u3190:
   964                           	
   965  03E6                     l2804:	
   966  03E6  1907               	btfsc	(58/8),(58)&7
   967  03E7  2BE9               	goto	u3201
   968  03E8  2BEA               	goto	u3200
   969  03E9                     u3201:
   970  03E9  2BEF               	goto	l520
   971  03EA                     u3200:
   972  03EA  2BEB               	goto	l2806
   973                           	
   974  03EB                     l522:	
   975                           	
   976  03EB                     l2806:	
   977  03EB  01CC               	clrf	(main@mode)
   978  03EC  1403               	bsf	status,0
   979  03ED  0DCC               	rlf	(main@mode),f
   980  03EE  2BF9               	goto	l518
   981                           	line	88
   982                           	
   983  03EF                     l520:	
   984                           ;PR25.c: 88: else if(RA4==0) mode=2;
   985  03EF  1A05               	btfsc	(44/8),(44)&7
   986  03F0  2BF2               	goto	u3211
   987  03F1  2BF3               	goto	u3210
   988  03F2                     u3211:
   989  03F2  2BF9               	goto	l518
   990  03F3                     u3210:
   991                           	
   992  03F3                     l2808:	
   993  03F3  3002               	movlw	(02h)
   994  03F4  00A5               	movwf	(??_main+0)+0
   995  03F5  0825               	movf	(??_main+0)+0,w
   996  03F6  00CC               	movwf	(main@mode)
   997  03F7  2BF9               	goto	l518
   998                           	
   999  03F8                     l524:	
  1000  03F8  2BF9               	goto	l518
  1001                           	line	89
  1002                           	
  1003  03F9                     l523:	
  1004                           	
  1005  03F9                     l518:	
  1006                           	line	85
  1007  03F9  1283               	bcf	status, 5	;RP0=0, select bank0
  1008  03FA  1303               	bcf	status, 6	;RP1=0, select bank0
  1009  03FB  084C               	movf	(main@mode),w
  1010  03FC  1D03               	skipz
  1011  03FD  2BFF               	goto	u3220
  1012  03FE  2BE2               	goto	l519
  1013  03FF                     u3220:
  1014  03FF  2D30               	goto	l2886
  1015                           	
  1016  0400                     l525:	
  1017                           	line	92
  1018                           ;PR25.c: 89: }
  1019                           ;PR25.c: 92: while(mode==1)
  1020  0400  2D30               	goto	l2886
  1021                           	
  1022  0401                     l527:	
  1023                           	line	94
  1024                           ;PR25.c: 93: {
  1025                           ;PR25.c: 94: if((RC1==0)&&(RC2==1))
  1026  0401  1887               	btfsc	(57/8),(57)&7
  1027  0402  2C04               	goto	u3231
  1028  0403  2C05               	goto	u3230
  1029  0404                     u3231:
  1030  0404  2C1E               	goto	l528
  1031  0405                     u3230:
  1032                           	
  1033  0405                     l2810:	
  1034  0405  1D07               	btfss	(58/8),(58)&7
  1035  0406  2C08               	goto	u3241
  1036  0407  2C09               	goto	u3240
  1037  0408                     u3241:
  1038  0408  2C1E               	goto	l528
  1039  0409                     u3240:
  1040                           	line	96
  1041                           	
  1042  0409                     l2812:	
  1043                           ;PR25.c: 95: {
  1044                           ;PR25.c: 96: data[i]=0;
  1045  0409  1003               	clrc
  1046  040A  0852               	movf	(main@i),w
  1047  040B  3E2A               	addlw	main@data&0ffh
  1048  040C  0084               	movwf	fsr0
  1049  040D  3000               	movlw	0
  1050  040E  1803               	btfsc	status,0
  1051  040F  3001               	movlw	1
  1052  0410  1383               	bcf	status, 7	;select IRP bank0
  1053  0411  0080               	movwf	indf
  1054                           	line	97
  1055                           ;PR25.c: 97: while((RC1==0)&&(RC2==1));
  1056  0412  2C13               	goto	l529
  1057                           	
  1058  0413                     l530:	
  1059                           	
  1060  0413                     l529:	
  1061  0413  1887               	btfsc	(57/8),(57)&7
  1062  0414  2C16               	goto	u3251
  1063  0415  2C17               	goto	u3250
  1064  0416                     u3251:
  1065  0416  2C3A               	goto	l2822
  1066  0417                     u3250:
  1067                           	
  1068  0417                     l2814:	
  1069  0417  1907               	btfsc	(58/8),(58)&7
  1070  0418  2C1A               	goto	u3261
  1071  0419  2C1B               	goto	u3260
  1072  041A                     u3261:
  1073  041A  2C13               	goto	l529
  1074  041B                     u3260:
  1075  041B  2C3A               	goto	l2822
  1076                           	
  1077  041C                     l532:	
  1078  041C  2C3A               	goto	l2822
  1079                           	
  1080  041D                     l533:	
  1081                           	line	98
  1082                           ;PR25.c: 98: }
  1083  041D  2C3A               	goto	l2822
  1084                           	line	99
  1085                           	
  1086  041E                     l528:	
  1087                           ;PR25.c: 99: else if ((RC1==1)&&(RC2==0))
  1088  041E  1C87               	btfss	(57/8),(57)&7
  1089  041F  2C21               	goto	u3271
  1090  0420  2C22               	goto	u3270
  1091  0421                     u3271:
  1092  0421  2C3A               	goto	l2822
  1093  0422                     u3270:
  1094                           	
  1095  0422                     l2816:	
  1096  0422  1907               	btfsc	(58/8),(58)&7
  1097  0423  2C25               	goto	u3281
  1098  0424  2C26               	goto	u3280
  1099  0425                     u3281:
  1100  0425  2C3A               	goto	l2822
  1101  0426                     u3280:
  1102                           	line	101
  1103                           	
  1104  0426                     l2818:	
  1105                           ;PR25.c: 100: {
  1106                           ;PR25.c: 101: data[i]=1;
  1107  0426  0852               	movf	(main@i),w
  1108  0427  3E2A               	addlw	main@data&0ffh
  1109  0428  0084               	movwf	fsr0
  1110  0429  1383               	bcf	status, 7	;select IRP bank0
  1111  042A  0180               	clrf	indf
  1112  042B  1403               	bsf	status,0
  1113  042C  0D80               	rlf	indf,f
  1114                           	line	102
  1115                           ;PR25.c: 102: while((RC1==1)&&(RC2==0));
  1116  042D  2C2E               	goto	l536
  1117                           	
  1118  042E                     l537:	
  1119                           	
  1120  042E                     l536:	
  1121  042E  1C87               	btfss	(57/8),(57)&7
  1122  042F  2C31               	goto	u3291
  1123  0430  2C32               	goto	u3290
  1124  0431                     u3291:
  1125  0431  2C3A               	goto	l2822
  1126  0432                     u3290:
  1127                           	
  1128  0432                     l2820:	
  1129  0432  1D07               	btfss	(58/8),(58)&7
  1130  0433  2C35               	goto	u3301
  1131  0434  2C36               	goto	u3300
  1132  0435                     u3301:
  1133  0435  2C2E               	goto	l536
  1134  0436                     u3300:
  1135  0436  2C3A               	goto	l2822
  1136                           	
  1137  0437                     l539:	
  1138  0437  2C3A               	goto	l2822
  1139                           	
  1140  0438                     l540:	
  1141  0438  2C3A               	goto	l2822
  1142                           	line	103
  1143                           	
  1144  0439                     l535:	
  1145  0439  2C3A               	goto	l2822
  1146                           	line	104
  1147                           	
  1148  043A                     l534:	
  1149                           	
  1150  043A                     l2822:	
  1151                           ;PR25.c: 103: }
  1152                           ;PR25.c: 104: i+=1;
  1153  043A  3001               	movlw	(01h)
  1154  043B  00A5               	movwf	(??_main+0)+0
  1155  043C  0825               	movf	(??_main+0)+0,w
  1156  043D  07D2               	addwf	(main@i),f
  1157                           	line	106
  1158                           ;PR25.c: 106: while(i<26)
  1159  043E  2C87               	goto	l2840
  1160                           	
  1161  043F                     l542:	
  1162                           	line	108
  1163                           ;PR25.c: 107: {
  1164                           ;PR25.c: 108: while((RC1==1)&&(RC2==1));
  1165  043F  2C40               	goto	l543
  1166                           	
  1167  0440                     l544:	
  1168                           	
  1169  0440                     l543:	
  1170  0440  1C87               	btfss	(57/8),(57)&7
  1171  0441  2C43               	goto	u3311
  1172  0442  2C44               	goto	u3310
  1173  0443                     u3311:
  1174  0443  2C49               	goto	l547
  1175  0444                     u3310:
  1176                           	
  1177  0444                     l2824:	
  1178  0444  1907               	btfsc	(58/8),(58)&7
  1179  0445  2C47               	goto	u3321
  1180  0446  2C48               	goto	u3320
  1181  0447                     u3321:
  1182  0447  2C40               	goto	l543
  1183  0448                     u3320:
  1184  0448  2C49               	goto	l547
  1185                           	
  1186  0449                     l546:	
  1187                           	
  1188  0449                     l547:	
  1189                           	line	109
  1190                           ;PR25.c: 109: if((RC1==0)&&(RC2==1))
  1191  0449  1887               	btfsc	(57/8),(57)&7
  1192  044A  2C4C               	goto	u3331
  1193  044B  2C4D               	goto	u3330
  1194  044C                     u3331:
  1195  044C  2C66               	goto	l548
  1196  044D                     u3330:
  1197                           	
  1198  044D                     l2826:	
  1199  044D  1D07               	btfss	(58/8),(58)&7
  1200  044E  2C50               	goto	u3341
  1201  044F  2C51               	goto	u3340
  1202  0450                     u3341:
  1203  0450  2C66               	goto	l548
  1204  0451                     u3340:
  1205                           	line	111
  1206                           	
  1207  0451                     l2828:	
  1208                           ;PR25.c: 110: {
  1209                           ;PR25.c: 111: data[i]=0;
  1210  0451  1003               	clrc
  1211  0452  0852               	movf	(main@i),w
  1212  0453  3E2A               	addlw	main@data&0ffh
  1213  0454  0084               	movwf	fsr0
  1214  0455  3000               	movlw	0
  1215  0456  1803               	btfsc	status,0
  1216  0457  3001               	movlw	1
  1217  0458  1383               	bcf	status, 7	;select IRP bank0
  1218  0459  0080               	movwf	indf
  1219                           	line	112
  1220                           ;PR25.c: 112: while((RC1==0)&&(RC2==1));
  1221  045A  2C5B               	goto	l549
  1222                           	
  1223  045B                     l550:	
  1224                           	
  1225  045B                     l549:	
  1226  045B  1887               	btfsc	(57/8),(57)&7
  1227  045C  2C5E               	goto	u3351
  1228  045D  2C5F               	goto	u3350
  1229  045E                     u3351:
  1230  045E  2C82               	goto	l2838
  1231  045F                     u3350:
  1232                           	
  1233  045F                     l2830:	
  1234  045F  1907               	btfsc	(58/8),(58)&7
  1235  0460  2C62               	goto	u3361
  1236  0461  2C63               	goto	u3360
  1237  0462                     u3361:
  1238  0462  2C5B               	goto	l549
  1239  0463                     u3360:
  1240  0463  2C82               	goto	l2838
  1241                           	
  1242  0464                     l552:	
  1243  0464  2C82               	goto	l2838
  1244                           	
  1245  0465                     l553:	
  1246                           	line	113
  1247                           ;PR25.c: 113: }
  1248  0465  2C82               	goto	l2838
  1249                           	line	114
  1250                           	
  1251  0466                     l548:	
  1252                           ;PR25.c: 114: else if ((RC1==1)&&(RC2==0))
  1253  0466  1C87               	btfss	(57/8),(57)&7
  1254  0467  2C69               	goto	u3371
  1255  0468  2C6A               	goto	u3370
  1256  0469                     u3371:
  1257  0469  2C82               	goto	l2838
  1258  046A                     u3370:
  1259                           	
  1260  046A                     l2832:	
  1261  046A  1907               	btfsc	(58/8),(58)&7
  1262  046B  2C6D               	goto	u3381
  1263  046C  2C6E               	goto	u3380
  1264  046D                     u3381:
  1265  046D  2C82               	goto	l2838
  1266  046E                     u3380:
  1267                           	line	116
  1268                           	
  1269  046E                     l2834:	
  1270                           ;PR25.c: 115: {
  1271                           ;PR25.c: 116: data[i]=1;
  1272  046E  0852               	movf	(main@i),w
  1273  046F  3E2A               	addlw	main@data&0ffh
  1274  0470  0084               	movwf	fsr0
  1275  0471  1383               	bcf	status, 7	;select IRP bank0
  1276  0472  0180               	clrf	indf
  1277  0473  1403               	bsf	status,0
  1278  0474  0D80               	rlf	indf,f
  1279                           	line	117
  1280                           ;PR25.c: 117: while((RC1==1)&&(RC2==0));
  1281  0475  2C76               	goto	l556
  1282                           	
  1283  0476                     l557:	
  1284                           	
  1285  0476                     l556:	
  1286  0476  1C87               	btfss	(57/8),(57)&7
  1287  0477  2C79               	goto	u3391
  1288  0478  2C7A               	goto	u3390
  1289  0479                     u3391:
  1290  0479  2C82               	goto	l2838
  1291  047A                     u3390:
  1292                           	
  1293  047A                     l2836:	
  1294  047A  1D07               	btfss	(58/8),(58)&7
  1295  047B  2C7D               	goto	u3401
  1296  047C  2C7E               	goto	u3400
  1297  047D                     u3401:
  1298  047D  2C76               	goto	l556
  1299  047E                     u3400:
  1300  047E  2C82               	goto	l2838
  1301                           	
  1302  047F                     l559:	
  1303  047F  2C82               	goto	l2838
  1304                           	
  1305  0480                     l560:	
  1306  0480  2C82               	goto	l2838
  1307                           	line	118
  1308                           	
  1309  0481                     l555:	
  1310  0481  2C82               	goto	l2838
  1311                           	line	119
  1312                           	
  1313  0482                     l554:	
  1314                           	
  1315  0482                     l2838:	
  1316                           ;PR25.c: 118: }
  1317                           ;PR25.c: 119: i+=1;
  1318  0482  3001               	movlw	(01h)
  1319  0483  00A5               	movwf	(??_main+0)+0
  1320  0484  0825               	movf	(??_main+0)+0,w
  1321  0485  07D2               	addwf	(main@i),f
  1322  0486  2C87               	goto	l2840
  1323                           	line	120
  1324                           	
  1325  0487                     l541:	
  1326                           	line	106
  1327                           	
  1328  0487                     l2840:	
  1329  0487  301A               	movlw	(01Ah)
  1330  0488  0252               	subwf	(main@i),w
  1331  0489  1C03               	skipc
  1332  048A  2C8C               	goto	u3411
  1333  048B  2C8D               	goto	u3410
  1334  048C                     u3411:
  1335  048C  2C40               	goto	l543
  1336  048D                     u3410:
  1337  048D  2C8E               	goto	l2842
  1338                           	
  1339  048E                     l561:	
  1340                           	line	122
  1341                           	
  1342  048E                     l2842:	
  1343                           ;PR25.c: 120: }
  1344                           ;PR25.c: 122: mode=0;
  1345  048E  1003               	clrc
  1346  048F  3000               	movlw	0
  1347  0490  1803               	btfsc	status,0
  1348  0491  3001               	movlw	1
  1349  0492  00CC               	movwf	(main@mode)
  1350                           	line	124
  1351                           ;PR25.c: 124: i=0;
  1352  0493  1003               	clrc
  1353  0494  3000               	movlw	0
  1354  0495  1803               	btfsc	status,0
  1355  0496  3001               	movlw	1
  1356  0497  00D2               	movwf	(main@i)
  1357                           	line	125
  1358                           	
  1359  0498                     l2844:	
  1360                           ;PR25.c: 125: lcd_clr();
  1361  0498  120A  118A  20A4   	fcall	_lcd_clr
              120A  118A         
  1362                           	line	127
  1363                           	
  1364  049D                     l2846:	
  1365                           ;PR25.c: 127: for(i=0;i<8;i++)
  1366  049D  1003               	clrc
  1367  049E  3000               	movlw	0
  1368  049F  1803               	btfsc	status,0
  1369  04A0  3001               	movlw	1
  1370  04A1  1283               	bcf	status, 5	;RP0=0, select bank0
  1371  04A2  1303               	bcf	status, 6	;RP1=0, select bank0
  1372  04A3  00D2               	movwf	(main@i)
  1373                           	
  1374  04A4                     l2848:	
  1375  04A4  3008               	movlw	(08h)
  1376  04A5  0252               	subwf	(main@i),w
  1377  04A6  1C03               	skipc
  1378  04A7  2CA9               	goto	u3421
  1379  04A8  2CAA               	goto	u3420
  1380  04A9                     u3421:
  1381  04A9  2CAC               	goto	l2852
  1382  04AA                     u3420:
  1383  04AA  2CC3               	goto	l2858
  1384                           	
  1385  04AB                     l2850:	
  1386  04AB  2CC3               	goto	l2858
  1387                           	line	128
  1388                           	
  1389  04AC                     l562:	
  1390                           	line	129
  1391                           	
  1392  04AC                     l2852:	
  1393                           ;PR25.c: 128: {
  1394                           ;PR25.c: 129: convert1=(convert1<<1)|data[i+1];
  1395  04AC  0852               	movf	(main@i),w
  1396  04AD  3E01               	addlw	01h
  1397  04AE  3E2A               	addlw	main@data&0ffh
  1398  04AF  0084               	movwf	fsr0
  1399  04B0  0850               	movf	(main@convert1),w
  1400  04B1  00A5               	movwf	(??_main+0)+0
  1401  04B2  0725               	addwf	(??_main+0)+0,w
  1402  04B3  1383               	bcf	status, 7	;select IRP bank0
  1403  04B4  0400               	iorwf	indf,w
  1404  04B5  00A6               	movwf	(??_main+1)+0
  1405  04B6  0826               	movf	(??_main+1)+0,w
  1406  04B7  00D0               	movwf	(main@convert1)
  1407                           	line	127
  1408                           	
  1409  04B8                     l2854:	
  1410  04B8  3001               	movlw	(01h)
  1411  04B9  00A5               	movwf	(??_main+0)+0
  1412  04BA  0825               	movf	(??_main+0)+0,w
  1413  04BB  07D2               	addwf	(main@i),f
  1414                           	
  1415  04BC                     l2856:	
  1416  04BC  3008               	movlw	(08h)
  1417  04BD  0252               	subwf	(main@i),w
  1418  04BE  1C03               	skipc
  1419  04BF  2CC1               	goto	u3431
  1420  04C0  2CC2               	goto	u3430
  1421  04C1                     u3431:
  1422  04C1  2CAC               	goto	l2852
  1423  04C2                     u3430:
  1424  04C2  2CC3               	goto	l2858
  1425                           	
  1426  04C3                     l563:	
  1427                           	line	131
  1428                           	
  1429  04C3                     l2858:	
  1430                           ;PR25.c: 130: }
  1431                           ;PR25.c: 131: for(i=0;i<16;i++)
  1432  04C3  1003               	clrc
  1433  04C4  3000               	movlw	0
  1434  04C5  1803               	btfsc	status,0
  1435  04C6  3001               	movlw	1
  1436  04C7  00D2               	movwf	(main@i)
  1437                           	
  1438  04C8                     l2860:	
  1439  04C8  3010               	movlw	(010h)
  1440  04C9  0252               	subwf	(main@i),w
  1441  04CA  1C03               	skipc
  1442  04CB  2CCD               	goto	u3441
  1443  04CC  2CCE               	goto	u3440
  1444  04CD                     u3441:
  1445  04CD  2CD0               	goto	l2864
  1446  04CE                     u3440:
  1447  04CE  2CF0               	goto	l2870
  1448                           	
  1449  04CF                     l2862:	
  1450  04CF  2CF0               	goto	l2870
  1451                           	line	132
  1452                           	
  1453  04D0                     l564:	
  1454                           	line	133
  1455                           	
  1456  04D0                     l2864:	
  1457                           ;PR25.c: 132: {
  1458                           ;PR25.c: 133: convert2=(convert2<<1)|data[i+9];
  1459  04D0  084F               	movf	(main@convert2+1),w
  1460  04D1  00A6               	movwf	(??_main+0)+0+1
  1461  04D2  084E               	movf	(main@convert2),w
  1462  04D3  00A5               	movwf	(??_main+0)+0
  1463  04D4  3001               	movlw	01h
  1464  04D5  00FF               	movwf	btemp+1
  1465  04D6                     u3455:
  1466  04D6  1003               	clrc
  1467  04D7  0DA5               	rlf	(??_main+0)+0,f
  1468  04D8  0DA6               	rlf	(??_main+0)+1,f
  1469  04D9  0BFF               	decfsz	btemp+1,f
  1470  04DA  2CD6               	goto	u3455
  1471  04DB  0852               	movf	(main@i),w
  1472  04DC  3E09               	addlw	09h
  1473  04DD  3E2A               	addlw	main@data&0ffh
  1474  04DE  0084               	movwf	fsr0
  1475  04DF  1383               	bcf	status, 7	;select IRP bank0
  1476  04E0  0800               	movf	indf,w
  1477  04E1  0425               	iorwf	0+(??_main+0)+0,w
  1478  04E2  00CE               	movwf	(main@convert2)
  1479  04E3  0826               	movf	1+(??_main+0)+0,w
  1480  04E4  00CF               	movwf	1+(main@convert2)
  1481                           	line	131
  1482                           	
  1483  04E5                     l2866:	
  1484  04E5  3001               	movlw	(01h)
  1485  04E6  00A5               	movwf	(??_main+0)+0
  1486  04E7  0825               	movf	(??_main+0)+0,w
  1487  04E8  07D2               	addwf	(main@i),f
  1488                           	
  1489  04E9                     l2868:	
  1490  04E9  3010               	movlw	(010h)
  1491  04EA  0252               	subwf	(main@i),w
  1492  04EB  1C03               	skipc
  1493  04EC  2CEE               	goto	u3461
  1494  04ED  2CEF               	goto	u3460
  1495  04EE                     u3461:
  1496  04EE  2CD0               	goto	l2864
  1497  04EF                     u3460:
  1498  04EF  2CF0               	goto	l2870
  1499                           	
  1500  04F0                     l565:	
  1501                           	line	136
  1502                           	
  1503  04F0                     l2870:	
  1504                           ;PR25.c: 134: }
  1505                           ;PR25.c: 136: for(b=0;b<2;b++)
  1506  04F0  1003               	clrc
  1507  04F1  3000               	movlw	0
  1508  04F2  1803               	btfsc	status,0
  1509  04F3  3001               	movlw	1
  1510  04F4  00CD               	movwf	(main@b)
  1511                           	
  1512  04F5                     l2872:	
  1513  04F5  3002               	movlw	(02h)
  1514  04F6  024D               	subwf	(main@b),w
  1515  04F7  1C03               	skipc
  1516  04F8  2CFA               	goto	u3471
  1517  04F9  2CFB               	goto	u3470
  1518  04FA                     u3471:
  1519  04FA  2CFD               	goto	l2876
  1520  04FB                     u3470:
  1521  04FB  2D2A               	goto	l2884
  1522                           	
  1523  04FC                     l2874:	
  1524  04FC  2D2A               	goto	l2884
  1525                           	line	137
  1526                           	
  1527  04FD                     l566:	
  1528                           	line	138
  1529                           	
  1530  04FD                     l2876:	
  1531                           ;PR25.c: 137: {
  1532                           ;PR25.c: 138: if((convert1==id1[b])&&(convert2==id2[b])) database=1;
  1533  04FD  084D               	movf	(main@b),w
  1534  04FE  3E49               	addlw	main@id1&0ffh
  1535  04FF  0084               	movwf	fsr0
  1536  0500  1383               	bcf	status, 7	;select IRP bank0
  1537  0501  0800               	movf	indf,w
  1538  0502  0650               	xorwf	(main@convert1),w
  1539  0503  1D03               	skipz
  1540  0504  2D06               	goto	u3481
  1541  0505  2D07               	goto	u3480
  1542  0506                     u3481:
  1543  0506  2D1F               	goto	l2882
  1544  0507                     u3480:
  1545                           	
  1546  0507                     l2878:	
  1547  0507  084D               	movf	(main@b),w
  1548  0508  00A5               	movwf	(??_main+0)+0
  1549  0509  0725               	addwf	(??_main+0)+0,w
  1550  050A  3E45               	addlw	main@id2&0ffh
  1551  050B  0084               	movwf	fsr0
  1552  050C  0800               	movf	indf,w
  1553  050D  00A6               	movwf	(??_main+1)+0+0
  1554  050E  0A84               	incf	fsr0,f
  1555  050F  0800               	movf	indf,w
  1556  0510  00A7               	movwf	(??_main+1)+0+1
  1557  0511  084F               	movf	(main@convert2+1),w
  1558  0512  0627               	xorwf	1+(??_main+1)+0,w
  1559  0513  1D03               	skipz
  1560  0514  2D17               	goto	u3495
  1561  0515  084E               	movf	(main@convert2),w
  1562  0516  0626               	xorwf	0+(??_main+1)+0,w
  1563  0517                     u3495:
  1564                           
  1565  0517  1D03               	skipz
  1566  0518  2D1A               	goto	u3491
  1567  0519  2D1B               	goto	u3490
  1568  051A                     u3491:
  1569  051A  2D1F               	goto	l2882
  1570  051B                     u3490:
  1571                           	
  1572  051B                     l2880:	
  1573  051B  01C4               	clrf	(main@database)
  1574  051C  1403               	bsf	status,0
  1575  051D  0DC4               	rlf	(main@database),f
  1576  051E  2D1F               	goto	l2882
  1577                           	
  1578  051F                     l568:	
  1579                           	line	136
  1580                           	
  1581  051F                     l2882:	
  1582  051F  3001               	movlw	(01h)
  1583  0520  00A5               	movwf	(??_main+0)+0
  1584  0521  0825               	movf	(??_main+0)+0,w
  1585  0522  07CD               	addwf	(main@b),f
  1586  0523  3002               	movlw	(02h)
  1587  0524  024D               	subwf	(main@b),w
  1588  0525  1C03               	skipc
  1589  0526  2D28               	goto	u3501
  1590  0527  2D29               	goto	u3500
  1591  0528                     u3501:
  1592  0528  2CFD               	goto	l2876
  1593  0529                     u3500:
  1594  0529  2D2A               	goto	l2884
  1595                           	
  1596  052A                     l567:	
  1597                           	line	140
  1598                           	
  1599  052A                     l2884:	
  1600                           ;PR25.c: 139: }
  1601                           ;PR25.c: 140: lcd_clr();
  1602  052A  120A  118A  20A4   	fcall	_lcd_clr
              120A  118A         
  1603  052F  2D30               	goto	l2886
  1604                           	line	141
  1605                           	
  1606  0530                     l526:	
  1607                           	line	92
  1608                           	
  1609  0530                     l2886:	
  1610  0530  1283               	bcf	status, 5	;RP0=0, select bank0
  1611  0531  1303               	bcf	status, 6	;RP1=0, select bank0
  1612  0532  084C               	movf	(main@mode),w
  1613  0533  3A01               	xorlw	01h
  1614  0534  1903               	skipnz
  1615  0535  2D37               	goto	u3511
  1616  0536  2D38               	goto	u3510
  1617  0537                     u3511:
  1618  0537  2C01               	goto	l527
  1619  0538                     u3510:
  1620  0538  2E21               	goto	l2948
  1621                           	
  1622  0539                     l569:	
  1623                           	line	144
  1624                           ;PR25.c: 141: }
  1625                           ;PR25.c: 144: while(mode==2)
  1626  0539  2E21               	goto	l2948
  1627                           	
  1628  053A                     l571:	
  1629                           	line	146
  1630                           	
  1631  053A                     l2888:	
  1632                           ;PR25.c: 145: {
  1633                           ;PR25.c: 146: lcd_clr();
  1634  053A  120A  118A  20A4   	fcall	_lcd_clr
              120A  118A         
  1635                           	line	147
  1636                           ;PR25.c: 147: lcd_goto(0);
  1637  053F  3000               	movlw	(0)
  1638  0540  120A  158A  2642   	fcall	_lcd_goto
              120A  118A         
  1639                           	line	148
  1640                           	
  1641  0545                     l2890:	
  1642                           ;PR25.c: 148: send_string ("    Save mode   ");
  1643  0545  3013               	movlw	((STR_5-__stringbase))&0ffh
  1644  0546  120A  158A  2680   	fcall	_send_string
              120A  118A         
  1645                           	line	149
  1646                           	
  1647  054B                     l2892:	
  1648                           ;PR25.c: 149: lcd_goto(20);
  1649  054B  3014               	movlw	(014h)
  1650  054C  120A  158A  2642   	fcall	_lcd_goto
              120A  118A         
  1651                           	line	150
  1652                           ;PR25.c: 150: send_string (" Place your tag");
  1653  0551  3034               	movlw	((STR_6-__stringbase))&0ffh
  1654  0552  120A  158A  2680   	fcall	_send_string
              120A  118A         
  1655                           	line	152
  1656                           ;PR25.c: 152: while(i<26)
  1657  0557  2DA2               	goto	l2910
  1658                           	
  1659  0558                     l573:	
  1660                           	line	154
  1661                           ;PR25.c: 153: {
  1662                           ;PR25.c: 154: while((RC1==1)&&(RC2==1));
  1663  0558  2D59               	goto	l574
  1664                           	
  1665  0559                     l575:	
  1666                           	
  1667  0559                     l574:	
  1668  0559  1283               	bcf	status, 5	;RP0=0, select bank0
  1669  055A  1303               	bcf	status, 6	;RP1=0, select bank0
  1670  055B  1C87               	btfss	(57/8),(57)&7
  1671  055C  2D5E               	goto	u3521
  1672  055D  2D5F               	goto	u3520
  1673  055E                     u3521:
  1674  055E  2D64               	goto	l578
  1675  055F                     u3520:
  1676                           	
  1677  055F                     l2894:	
  1678  055F  1907               	btfsc	(58/8),(58)&7
  1679  0560  2D62               	goto	u3531
  1680  0561  2D63               	goto	u3530
  1681  0562                     u3531:
  1682  0562  2D59               	goto	l574
  1683  0563                     u3530:
  1684  0563  2D64               	goto	l578
  1685                           	
  1686  0564                     l577:	
  1687                           	
  1688  0564                     l578:	
  1689                           	line	155
  1690                           ;PR25.c: 155: if((RC1==0)&&(RC2==1))
  1691  0564  1887               	btfsc	(57/8),(57)&7
  1692  0565  2D67               	goto	u3541
  1693  0566  2D68               	goto	u3540
  1694  0567                     u3541:
  1695  0567  2D81               	goto	l579
  1696  0568                     u3540:
  1697                           	
  1698  0568                     l2896:	
  1699  0568  1D07               	btfss	(58/8),(58)&7
  1700  0569  2D6B               	goto	u3551
  1701  056A  2D6C               	goto	u3550
  1702  056B                     u3551:
  1703  056B  2D81               	goto	l579
  1704  056C                     u3550:
  1705                           	line	157
  1706                           	
  1707  056C                     l2898:	
  1708                           ;PR25.c: 156: {
  1709                           ;PR25.c: 157: data[i]=0;
  1710  056C  1003               	clrc
  1711  056D  0852               	movf	(main@i),w
  1712  056E  3E2A               	addlw	main@data&0ffh
  1713  056F  0084               	movwf	fsr0
  1714  0570  3000               	movlw	0
  1715  0571  1803               	btfsc	status,0
  1716  0572  3001               	movlw	1
  1717  0573  1383               	bcf	status, 7	;select IRP bank0
  1718  0574  0080               	movwf	indf
  1719                           	line	158
  1720                           ;PR25.c: 158: while((RC1==0)&&(RC2==1));
  1721  0575  2D76               	goto	l580
  1722                           	
  1723  0576                     l581:	
  1724                           	
  1725  0576                     l580:	
  1726  0576  1887               	btfsc	(57/8),(57)&7
  1727  0577  2D79               	goto	u3561
  1728  0578  2D7A               	goto	u3560
  1729  0579                     u3561:
  1730  0579  2D9D               	goto	l2908
  1731  057A                     u3560:
  1732                           	
  1733  057A                     l2900:	
  1734  057A  1907               	btfsc	(58/8),(58)&7
  1735  057B  2D7D               	goto	u3571
  1736  057C  2D7E               	goto	u3570
  1737  057D                     u3571:
  1738  057D  2D76               	goto	l580
  1739  057E                     u3570:
  1740  057E  2D9D               	goto	l2908
  1741                           	
  1742  057F                     l583:	
  1743  057F  2D9D               	goto	l2908
  1744                           	
  1745  0580                     l584:	
  1746                           	line	159
  1747                           ;PR25.c: 159: }
  1748  0580  2D9D               	goto	l2908
  1749                           	line	160
  1750                           	
  1751  0581                     l579:	
  1752                           ;PR25.c: 160: else if ((RC1==1)&&(RC2==0))
  1753  0581  1C87               	btfss	(57/8),(57)&7
  1754  0582  2D84               	goto	u3581
  1755  0583  2D85               	goto	u3580
  1756  0584                     u3581:
  1757  0584  2D9D               	goto	l2908
  1758  0585                     u3580:
  1759                           	
  1760  0585                     l2902:	
  1761  0585  1907               	btfsc	(58/8),(58)&7
  1762  0586  2D88               	goto	u3591
  1763  0587  2D89               	goto	u3590
  1764  0588                     u3591:
  1765  0588  2D9D               	goto	l2908
  1766  0589                     u3590:
  1767                           	line	162
  1768                           	
  1769  0589                     l2904:	
  1770                           ;PR25.c: 161: {
  1771                           ;PR25.c: 162: data[i]=1;
  1772  0589  0852               	movf	(main@i),w
  1773  058A  3E2A               	addlw	main@data&0ffh
  1774  058B  0084               	movwf	fsr0
  1775  058C  1383               	bcf	status, 7	;select IRP bank0
  1776  058D  0180               	clrf	indf
  1777  058E  1403               	bsf	status,0
  1778  058F  0D80               	rlf	indf,f
  1779                           	line	163
  1780                           ;PR25.c: 163: while((RC1==1)&&(RC2==0));
  1781  0590  2D91               	goto	l587
  1782                           	
  1783  0591                     l588:	
  1784                           	
  1785  0591                     l587:	
  1786  0591  1C87               	btfss	(57/8),(57)&7
  1787  0592  2D94               	goto	u3601
  1788  0593  2D95               	goto	u3600
  1789  0594                     u3601:
  1790  0594  2D9D               	goto	l2908
  1791  0595                     u3600:
  1792                           	
  1793  0595                     l2906:	
  1794  0595  1D07               	btfss	(58/8),(58)&7
  1795  0596  2D98               	goto	u3611
  1796  0597  2D99               	goto	u3610
  1797  0598                     u3611:
  1798  0598  2D91               	goto	l587
  1799  0599                     u3610:
  1800  0599  2D9D               	goto	l2908
  1801                           	
  1802  059A                     l590:	
  1803  059A  2D9D               	goto	l2908
  1804                           	
  1805  059B                     l591:	
  1806  059B  2D9D               	goto	l2908
  1807                           	line	164
  1808                           	
  1809  059C                     l586:	
  1810  059C  2D9D               	goto	l2908
  1811                           	line	165
  1812                           	
  1813  059D                     l585:	
  1814                           	
  1815  059D                     l2908:	
  1816                           ;PR25.c: 164: }
  1817                           ;PR25.c: 165: i+=1;
  1818  059D  3001               	movlw	(01h)
  1819  059E  00A5               	movwf	(??_main+0)+0
  1820  059F  0825               	movf	(??_main+0)+0,w
  1821  05A0  07D2               	addwf	(main@i),f
  1822  05A1  2DA2               	goto	l2910
  1823                           	line	166
  1824                           	
  1825  05A2                     l572:	
  1826                           	line	152
  1827                           	
  1828  05A2                     l2910:	
  1829  05A2  301A               	movlw	(01Ah)
  1830  05A3  1283               	bcf	status, 5	;RP0=0, select bank0
  1831  05A4  1303               	bcf	status, 6	;RP1=0, select bank0
  1832  05A5  0252               	subwf	(main@i),w
  1833  05A6  1C03               	skipc
  1834  05A7  2DA9               	goto	u3621
  1835  05A8  2DAA               	goto	u3620
  1836  05A9                     u3621:
  1837  05A9  2D59               	goto	l574
  1838  05AA                     u3620:
  1839  05AA  2DAB               	goto	l2912
  1840                           	
  1841  05AB                     l592:	
  1842                           	line	168
  1843                           	
  1844  05AB                     l2912:	
  1845                           ;PR25.c: 166: }
  1846                           ;PR25.c: 168: mode=0;
  1847  05AB  1003               	clrc
  1848  05AC  3000               	movlw	0
  1849  05AD  1803               	btfsc	status,0
  1850  05AE  3001               	movlw	1
  1851  05AF  00CC               	movwf	(main@mode)
  1852                           	line	169
  1853                           ;PR25.c: 169: i=0;
  1854  05B0  1003               	clrc
  1855  05B1  3000               	movlw	0
  1856  05B2  1803               	btfsc	status,0
  1857  05B3  3001               	movlw	1
  1858  05B4  00D2               	movwf	(main@i)
  1859                           	line	170
  1860                           	
  1861  05B5                     l2914:	
  1862                           ;PR25.c: 170: lcd_clr();
  1863  05B5  120A  118A  20A4   	fcall	_lcd_clr
              120A  118A         
  1864                           	line	172
  1865                           	
  1866  05BA                     l2916:	
  1867                           ;PR25.c: 172: for(i=0;i<8;i++)
  1868  05BA  1003               	clrc
  1869  05BB  3000               	movlw	0
  1870  05BC  1803               	btfsc	status,0
  1871  05BD  3001               	movlw	1
  1872  05BE  1283               	bcf	status, 5	;RP0=0, select bank0
  1873  05BF  1303               	bcf	status, 6	;RP1=0, select bank0
  1874  05C0  00D2               	movwf	(main@i)
  1875                           	
  1876  05C1                     l2918:	
  1877  05C1  3008               	movlw	(08h)
  1878  05C2  0252               	subwf	(main@i),w
  1879  05C3  1C03               	skipc
  1880  05C4  2DC6               	goto	u3631
  1881  05C5  2DC7               	goto	u3630
  1882  05C6                     u3631:
  1883  05C6  2DC9               	goto	l2922
  1884  05C7                     u3630:
  1885  05C7  2DE0               	goto	l2928
  1886                           	
  1887  05C8                     l2920:	
  1888  05C8  2DE0               	goto	l2928
  1889                           	line	173
  1890                           	
  1891  05C9                     l593:	
  1892                           	line	174
  1893                           	
  1894  05C9                     l2922:	
  1895                           ;PR25.c: 173: {
  1896                           ;PR25.c: 174: convert1=(convert1<<1)|data[i+1];
  1897  05C9  0852               	movf	(main@i),w
  1898  05CA  3E01               	addlw	01h
  1899  05CB  3E2A               	addlw	main@data&0ffh
  1900  05CC  0084               	movwf	fsr0
  1901  05CD  0850               	movf	(main@convert1),w
  1902  05CE  00A5               	movwf	(??_main+0)+0
  1903  05CF  0725               	addwf	(??_main+0)+0,w
  1904  05D0  1383               	bcf	status, 7	;select IRP bank0
  1905  05D1  0400               	iorwf	indf,w
  1906  05D2  00A6               	movwf	(??_main+1)+0
  1907  05D3  0826               	movf	(??_main+1)+0,w
  1908  05D4  00D0               	movwf	(main@convert1)
  1909                           	line	172
  1910                           	
  1911  05D5                     l2924:	
  1912  05D5  3001               	movlw	(01h)
  1913  05D6  00A5               	movwf	(??_main+0)+0
  1914  05D7  0825               	movf	(??_main+0)+0,w
  1915  05D8  07D2               	addwf	(main@i),f
  1916                           	
  1917  05D9                     l2926:	
  1918  05D9  3008               	movlw	(08h)
  1919  05DA  0252               	subwf	(main@i),w
  1920  05DB  1C03               	skipc
  1921  05DC  2DDE               	goto	u3641
  1922  05DD  2DDF               	goto	u3640
  1923  05DE                     u3641:
  1924  05DE  2DC9               	goto	l2922
  1925  05DF                     u3640:
  1926  05DF  2DE0               	goto	l2928
  1927                           	
  1928  05E0                     l594:	
  1929                           	line	176
  1930                           	
  1931  05E0                     l2928:	
  1932                           ;PR25.c: 175: }
  1933                           ;PR25.c: 176: for(i=0;i<16;i++)
  1934  05E0  1003               	clrc
  1935  05E1  3000               	movlw	0
  1936  05E2  1803               	btfsc	status,0
  1937  05E3  3001               	movlw	1
  1938  05E4  00D2               	movwf	(main@i)
  1939                           	
  1940  05E5                     l2930:	
  1941  05E5  3010               	movlw	(010h)
  1942  05E6  0252               	subwf	(main@i),w
  1943  05E7  1C03               	skipc
  1944  05E8  2DEA               	goto	u3651
  1945  05E9  2DEB               	goto	u3650
  1946  05EA                     u3651:
  1947  05EA  2DED               	goto	l2934
  1948  05EB                     u3650:
  1949  05EB  2E0D               	goto	l2940
  1950                           	
  1951  05EC                     l2932:	
  1952  05EC  2E0D               	goto	l2940
  1953                           	line	177
  1954                           	
  1955  05ED                     l595:	
  1956                           	line	178
  1957                           	
  1958  05ED                     l2934:	
  1959                           ;PR25.c: 177: {
  1960                           ;PR25.c: 178: convert2=(convert2<<1)|data[i+9];
  1961  05ED  084F               	movf	(main@convert2+1),w
  1962  05EE  00A6               	movwf	(??_main+0)+0+1
  1963  05EF  084E               	movf	(main@convert2),w
  1964  05F0  00A5               	movwf	(??_main+0)+0
  1965  05F1  3001               	movlw	01h
  1966  05F2  00FF               	movwf	btemp+1
  1967  05F3                     u3665:
  1968  05F3  1003               	clrc
  1969  05F4  0DA5               	rlf	(??_main+0)+0,f
  1970  05F5  0DA6               	rlf	(??_main+0)+1,f
  1971  05F6  0BFF               	decfsz	btemp+1,f
  1972  05F7  2DF3               	goto	u3665
  1973  05F8  0852               	movf	(main@i),w
  1974  05F9  3E09               	addlw	09h
  1975  05FA  3E2A               	addlw	main@data&0ffh
  1976  05FB  0084               	movwf	fsr0
  1977  05FC  1383               	bcf	status, 7	;select IRP bank0
  1978  05FD  0800               	movf	indf,w
  1979  05FE  0425               	iorwf	0+(??_main+0)+0,w
  1980  05FF  00CE               	movwf	(main@convert2)
  1981  0600  0826               	movf	1+(??_main+0)+0,w
  1982  0601  00CF               	movwf	1+(main@convert2)
  1983                           	line	176
  1984                           	
  1985  0602                     l2936:	
  1986  0602  3001               	movlw	(01h)
  1987  0603  00A5               	movwf	(??_main+0)+0
  1988  0604  0825               	movf	(??_main+0)+0,w
  1989  0605  07D2               	addwf	(main@i),f
  1990                           	
  1991  0606                     l2938:	
  1992  0606  3010               	movlw	(010h)
  1993  0607  0252               	subwf	(main@i),w
  1994  0608  1C03               	skipc
  1995  0609  2E0B               	goto	u3671
  1996  060A  2E0C               	goto	u3670
  1997  060B                     u3671:
  1998  060B  2DED               	goto	l2934
  1999  060C                     u3670:
  2000  060C  2E0D               	goto	l2940
  2001                           	
  2002  060D                     l596:	
  2003                           	line	181
  2004                           	
  2005  060D                     l2940:	
  2006                           ;PR25.c: 179: }
  2007                           ;PR25.c: 181: id1[1]=convert1;
  2008  060D  0850               	movf	(main@convert1),w
  2009  060E  00A5               	movwf	(??_main+0)+0
  2010  060F  0825               	movf	(??_main+0)+0,w
  2011  0610  00CA               	movwf	0+(main@id1)+01h
  2012                           	line	182
  2013                           	
  2014  0611                     l2942:	
  2015                           ;PR25.c: 182: id2[1]=convert2;
  2016  0611  084F               	movf	(main@convert2+1),w
  2017  0612  01C8               	clrf	1+(main@id2)+02h
  2018  0613  07C8               	addwf	1+(main@id2)+02h
  2019  0614  084E               	movf	(main@convert2),w
  2020  0615  01C7               	clrf	0+(main@id2)+02h
  2021  0616  07C7               	addwf	0+(main@id2)+02h
  2022                           
  2023                           	line	184
  2024                           	
  2025  0617                     l2944:	
  2026                           ;PR25.c: 184: database=2;
  2027  0617  3002               	movlw	(02h)
  2028  0618  00A5               	movwf	(??_main+0)+0
  2029  0619  0825               	movf	(??_main+0)+0,w
  2030  061A  00C4               	movwf	(main@database)
  2031                           	line	185
  2032                           	
  2033  061B                     l2946:	
  2034                           ;PR25.c: 185: lcd_clr();
  2035  061B  120A  118A  20A4   	fcall	_lcd_clr
              120A  118A         
  2036  0620  2E21               	goto	l2948
  2037                           	line	186
  2038                           	
  2039  0621                     l570:	
  2040                           	line	144
  2041                           	
  2042  0621                     l2948:	
  2043  0621  1283               	bcf	status, 5	;RP0=0, select bank0
  2044  0622  1303               	bcf	status, 6	;RP1=0, select bank0
  2045  0623  084C               	movf	(main@mode),w
  2046  0624  3A02               	xorlw	02h
  2047  0625  1903               	skipnz
  2048  0626  2E28               	goto	u3681
  2049  0627  2E29               	goto	u3680
  2050  0628                     u3681:
  2051  0628  2D3A               	goto	l2888
  2052  0629                     u3680:
  2053  0629  2FB8               	goto	l3036
  2054                           	
  2055  062A                     l597:	
  2056                           	line	188
  2057                           ;PR25.c: 186: }
  2058                           ;PR25.c: 188: switch(database)
  2059  062A  2FB8               	goto	l3036
  2060                           	line	190
  2061                           ;PR25.c: 189: {
  2062                           ;PR25.c: 190: case 1:
  2063                           	
  2064  062B                     l599:	
  2065                           	line	191
  2066                           ;PR25.c: 191: RA1=1;
  2067  062B  1485               	bsf	(41/8),(41)&7
  2068                           	line	192
  2069                           ;PR25.c: 192: RC3=0;
  2070  062C  1187               	bcf	(59/8),(59)&7
  2071                           	line	193
  2072                           	
  2073  062D                     l2950:	
  2074                           ;PR25.c: 193: lcd_goto(0);
  2075  062D  3000               	movlw	(0)
  2076  062E  120A  158A  2642   	fcall	_lcd_goto
              120A  118A         
  2077                           	line	194
  2078                           	
  2079  0633                     l2952:	
  2080                           ;PR25.c: 194: send_string("ID no: ");
  2081  0633  3093               	movlw	((STR_7-__stringbase))&0ffh
  2082  0634  120A  158A  2680   	fcall	_send_string
              120A  118A         
  2083                           	line	195
  2084                           	
  2085  0639                     l2954:	
  2086                           ;PR25.c: 195: lcd_goto(7);
  2087  0639  3007               	movlw	(07h)
  2088  063A  120A  158A  2642   	fcall	_lcd_goto
              120A  118A         
  2089                           	line	196
  2090                           	
  2091  063F                     l2956:	
  2092                           ;PR25.c: 196: send_dec(convert1,3);
  2093  063F  1283               	bcf	status, 5	;RP0=0, select bank0
  2094  0640  1303               	bcf	status, 6	;RP1=0, select bank0
  2095  0641  0850               	movf	(main@convert1),w
  2096  0642  00A5               	movwf	(??_main+0)+0
  2097  0643  01A6               	clrf	((??_main+0)+0+1)
  2098  0644  01A7               	clrf	((??_main+0)+0+2)
  2099  0645  01A8               	clrf	((??_main+0)+0+3)
  2100  0646  0828               	movf	3+(??_main+0)+0,w
  2101  0647  00A3               	movwf	(?_send_dec+3)
  2102  0648  0827               	movf	2+(??_main+0)+0,w
  2103  0649  00A2               	movwf	(?_send_dec+2)
  2104  064A  0826               	movf	1+(??_main+0)+0,w
  2105  064B  00A1               	movwf	(?_send_dec+1)
  2106  064C  0825               	movf	0+(??_main+0)+0,w
  2107  064D  00A0               	movwf	(?_send_dec)
  2108                           
  2109  064E  3003               	movlw	(03h)
  2110  064F  00A9               	movwf	(??_main+4)+0
  2111  0650  0829               	movf	(??_main+4)+0,w
  2112  0651  00A4               	movwf	0+(?_send_dec)+04h
  2113  0652  120A  118A  20B8   	fcall	_send_dec
              120A  118A         
  2114                           	line	197
  2115                           	
  2116  0657                     l2958:	
  2117                           ;PR25.c: 197: lcd_goto(10);
  2118  0657  300A               	movlw	(0Ah)
  2119  0658  120A  158A  2642   	fcall	_lcd_goto
              120A  118A         
  2120                           	line	198
  2121                           	
  2122  065D                     l2960:	
  2123                           ;PR25.c: 198: send_dec(convert2,5);
  2124  065D  1283               	bcf	status, 5	;RP0=0, select bank0
  2125  065E  1303               	bcf	status, 6	;RP1=0, select bank0
  2126  065F  084E               	movf	(main@convert2),w
  2127  0660  00A0               	movwf	(?_send_dec)
  2128  0661  084F               	movf	(main@convert2+1),w
  2129  0662  00A1               	movwf	((?_send_dec))+1
  2130  0663  01A2               	clrf	2+((?_send_dec))
  2131  0664  01A3               	clrf	3+((?_send_dec))
  2132  0665  3005               	movlw	(05h)
  2133  0666  00A5               	movwf	(??_main+0)+0
  2134  0667  0825               	movf	(??_main+0)+0,w
  2135  0668  00A4               	movwf	0+(?_send_dec)+04h
  2136  0669  120A  118A  20B8   	fcall	_send_dec
              120A  118A         
  2137                           	line	199
  2138                           	
  2139  066E                     l2962:	
  2140                           ;PR25.c: 199: lcd_goto(20);
  2141  066E  3014               	movlw	(014h)
  2142  066F  120A  158A  2642   	fcall	_lcd_goto
              120A  118A         
  2143                           	line	200
  2144                           ;PR25.c: 200: send_string("User identified. ");
  2145  0674  3001               	movlw	((STR_8-__stringbase))&0ffh
  2146  0675  120A  158A  2680   	fcall	_send_string
              120A  118A         
  2147                           	line	201
  2148                           	
  2149  067A                     l2964:	
  2150                           ;PR25.c: 201: for(repeat=12; repeat>0; repeat--)
  2151  067A  300C               	movlw	(0Ch)
  2152  067B  1283               	bcf	status, 5	;RP0=0, select bank0
  2153  067C  1303               	bcf	status, 6	;RP1=0, select bank0
  2154  067D  00A5               	movwf	(??_main+0)+0
  2155  067E  0825               	movf	(??_main+0)+0,w
  2156  067F  00D1               	movwf	(main@repeat)
  2157                           	
  2158  0680                     l2966:	
  2159  0680  08D1               	movf	(main@repeat),f
  2160  0681  1D03               	skipz
  2161  0682  2E84               	goto	u3691
  2162  0683  2E85               	goto	u3690
  2163  0684                     u3691:
  2164  0684  2E87               	goto	l2970
  2165  0685                     u3690:
  2166  0685  2E9E               	goto	l2976
  2167                           	
  2168  0686                     l2968:	
  2169  0686  2E9E               	goto	l2976
  2170                           	line	202
  2171                           	
  2172  0687                     l600:	
  2173                           	line	203
  2174                           	
  2175  0687                     l2970:	
  2176                           ;PR25.c: 202: {
  2177                           ;PR25.c: 203: delay(1000000);
  2178  0687  3000               	movlw	0
  2179  0688  00F3               	movwf	(?_delay+3)
  2180  0689  300F               	movlw	0Fh
  2181  068A  00F2               	movwf	(?_delay+2)
  2182  068B  3042               	movlw	042h
  2183  068C  00F1               	movwf	(?_delay+1)
  2184  068D  3040               	movlw	040h
  2185  068E  00F0               	movwf	(?_delay)
  2186                           
  2187  068F  120A  158A  26A6   	fcall	_delay
              120A  118A         
  2188                           	line	201
  2189                           	
  2190  0694                     l2972:	
  2191  0694  3001               	movlw	low(01h)
  2192  0695  1283               	bcf	status, 5	;RP0=0, select bank0
  2193  0696  1303               	bcf	status, 6	;RP1=0, select bank0
  2194  0697  02D1               	subwf	(main@repeat),f
  2195                           	
  2196  0698                     l2974:	
  2197  0698  08D1               	movf	(main@repeat),f
  2198  0699  1D03               	skipz
  2199  069A  2E9C               	goto	u3701
  2200  069B  2E9D               	goto	u3700
  2201  069C                     u3701:
  2202  069C  2E87               	goto	l2970
  2203  069D                     u3700:
  2204  069D  2E9E               	goto	l2976
  2205                           	
  2206  069E                     l601:	
  2207                           	line	205
  2208                           	
  2209  069E                     l2976:	
  2210                           ;PR25.c: 204: }
  2211                           ;PR25.c: 205: lcd_clr();
  2212  069E  120A  118A  20A4   	fcall	_lcd_clr
              120A  118A         
  2213                           	line	206
  2214                           ;PR25.c: 206: lcd_goto(0);
  2215  06A3  3000               	movlw	(0)
  2216  06A4  120A  158A  2642   	fcall	_lcd_goto
              120A  118A         
  2217                           	line	207
  2218                           	
  2219  06A9                     l2978:	
  2220                           ;PR25.c: 207: send_string("Door lock will");
  2221  06A9  3053               	movlw	((STR_9-__stringbase))&0ffh
  2222  06AA  120A  158A  2680   	fcall	_send_string
              120A  118A         
  2223                           	line	208
  2224                           	
  2225  06AF                     l2980:	
  2226                           ;PR25.c: 208: lcd_goto(20);
  2227  06AF  3014               	movlw	(014h)
  2228  06B0  120A  158A  2642   	fcall	_lcd_goto
              120A  118A         
  2229                           	line	209
  2230                           ;PR25.c: 209: send_string("be locked in ");
  2231  06B5  3062               	movlw	((STR_10-__stringbase))&0ffh
  2232  06B6  120A  158A  2680   	fcall	_send_string
              120A  118A         
  2233                           	line	211
  2234                           	
  2235  06BB                     l2982:	
  2236                           ;PR25.c: 211: for(a=5;a>0;a--)
  2237  06BB  3005               	movlw	(05h)
  2238  06BC  1283               	bcf	status, 5	;RP0=0, select bank0
  2239  06BD  1303               	bcf	status, 6	;RP1=0, select bank0
  2240  06BE  00A5               	movwf	(??_main+0)+0
  2241  06BF  0825               	movf	(??_main+0)+0,w
  2242  06C0  00CB               	movwf	(main@a)
  2243                           	
  2244  06C1                     l2984:	
  2245  06C1  08CB               	movf	(main@a),f
  2246  06C2  1D03               	skipz
  2247  06C3  2EC5               	goto	u3711
  2248  06C4  2EC6               	goto	u3710
  2249  06C5                     u3711:
  2250  06C5  2EC8               	goto	l2988
  2251  06C6                     u3710:
  2252  06C6  2FC2               	goto	l3038
  2253                           	
  2254  06C7                     l2986:	
  2255  06C7  2FC2               	goto	l3038
  2256                           	line	212
  2257                           	
  2258  06C8                     l602:	
  2259                           	line	213
  2260                           	
  2261  06C8                     l2988:	
  2262                           ;PR25.c: 212: {
  2263                           ;PR25.c: 213: lcd_goto(34);
  2264  06C8  3022               	movlw	(022h)
  2265  06C9  120A  158A  2642   	fcall	_lcd_goto
              120A  118A         
  2266                           	line	214
  2267                           ;PR25.c: 214: send_dec(a, 1);
  2268  06CE  1283               	bcf	status, 5	;RP0=0, select bank0
  2269  06CF  1303               	bcf	status, 6	;RP1=0, select bank0
  2270  06D0  084B               	movf	(main@a),w
  2271  06D1  00A5               	movwf	(??_main+0)+0
  2272  06D2  01A6               	clrf	((??_main+0)+0+1)
  2273  06D3  01A7               	clrf	((??_main+0)+0+2)
  2274  06D4  01A8               	clrf	((??_main+0)+0+3)
  2275  06D5  0828               	movf	3+(??_main+0)+0,w
  2276  06D6  00A3               	movwf	(?_send_dec+3)
  2277  06D7  0827               	movf	2+(??_main+0)+0,w
  2278  06D8  00A2               	movwf	(?_send_dec+2)
  2279  06D9  0826               	movf	1+(??_main+0)+0,w
  2280  06DA  00A1               	movwf	(?_send_dec+1)
  2281  06DB  0825               	movf	0+(??_main+0)+0,w
  2282  06DC  00A0               	movwf	(?_send_dec)
  2283                           
  2284  06DD  01A4               	clrf	0+(?_send_dec)+04h
  2285  06DE  1403               	bsf	status,0
  2286  06DF  0DA4               	rlf	0+(?_send_dec)+04h,f
  2287  06E0  120A  118A  20B8   	fcall	_send_dec
              120A  118A         
  2288                           	line	215
  2289                           	
  2290  06E5                     l2990:	
  2291                           ;PR25.c: 215: for(repeat=10; repeat>0; repeat--)
  2292  06E5  300A               	movlw	(0Ah)
  2293  06E6  1283               	bcf	status, 5	;RP0=0, select bank0
  2294  06E7  1303               	bcf	status, 6	;RP1=0, select bank0
  2295  06E8  00A5               	movwf	(??_main+0)+0
  2296  06E9  0825               	movf	(??_main+0)+0,w
  2297  06EA  00D1               	movwf	(main@repeat)
  2298                           	
  2299  06EB                     l2992:	
  2300  06EB  08D1               	movf	(main@repeat),f
  2301  06EC  1D03               	skipz
  2302  06ED  2EEF               	goto	u3721
  2303  06EE  2EF0               	goto	u3720
  2304  06EF                     u3721:
  2305  06EF  2EF2               	goto	l2996
  2306  06F0                     u3720:
  2307  06F0  2F09               	goto	l3002
  2308                           	
  2309  06F1                     l2994:	
  2310  06F1  2F09               	goto	l3002
  2311                           	line	216
  2312                           	
  2313  06F2                     l604:	
  2314                           	line	217
  2315                           	
  2316  06F2                     l2996:	
  2317                           ;PR25.c: 216: {
  2318                           ;PR25.c: 217: delay(1000000);
  2319  06F2  3000               	movlw	0
  2320  06F3  00F3               	movwf	(?_delay+3)
  2321  06F4  300F               	movlw	0Fh
  2322  06F5  00F2               	movwf	(?_delay+2)
  2323  06F6  3042               	movlw	042h
  2324  06F7  00F1               	movwf	(?_delay+1)
  2325  06F8  3040               	movlw	040h
  2326  06F9  00F0               	movwf	(?_delay)
  2327                           
  2328  06FA  120A  158A  26A6   	fcall	_delay
              120A  118A         
  2329                           	line	215
  2330                           	
  2331  06FF                     l2998:	
  2332  06FF  3001               	movlw	low(01h)
  2333  0700  1283               	bcf	status, 5	;RP0=0, select bank0
  2334  0701  1303               	bcf	status, 6	;RP1=0, select bank0
  2335  0702  02D1               	subwf	(main@repeat),f
  2336                           	
  2337  0703                     l3000:	
  2338  0703  08D1               	movf	(main@repeat),f
  2339  0704  1D03               	skipz
  2340  0705  2F07               	goto	u3731
  2341  0706  2F08               	goto	u3730
  2342  0707                     u3731:
  2343  0707  2EF2               	goto	l2996
  2344  0708                     u3730:
  2345  0708  2F09               	goto	l3002
  2346                           	
  2347  0709                     l605:	
  2348                           	line	211
  2349                           	
  2350  0709                     l3002:	
  2351  0709  3001               	movlw	low(01h)
  2352  070A  02CB               	subwf	(main@a),f
  2353                           	
  2354  070B                     l3004:	
  2355  070B  08CB               	movf	(main@a),f
  2356  070C  1D03               	skipz
  2357  070D  2F0F               	goto	u3741
  2358  070E  2F10               	goto	u3740
  2359  070F                     u3741:
  2360  070F  2EC8               	goto	l2988
  2361  0710                     u3740:
  2362  0710  2FC2               	goto	l3038
  2363                           	
  2364  0711                     l603:	
  2365                           	line	220
  2366                           ;PR25.c: 218: }
  2367                           ;PR25.c: 219: }
  2368                           ;PR25.c: 220: break;
  2369  0711  2FC2               	goto	l3038
  2370                           	line	222
  2371                           ;PR25.c: 222: case 2:
  2372                           	
  2373  0712                     l607:	
  2374                           	line	223
  2375                           ;PR25.c: 223: RA1=1;
  2376  0712  1485               	bsf	(41/8),(41)&7
  2377                           	line	224
  2378                           ;PR25.c: 224: RC3=0;
  2379  0713  1187               	bcf	(59/8),(59)&7
  2380                           	line	225
  2381                           	
  2382  0714                     l3006:	
  2383                           ;PR25.c: 225: lcd_clr();
  2384  0714  120A  118A  20A4   	fcall	_lcd_clr
              120A  118A         
  2385                           	line	226
  2386                           ;PR25.c: 226: lcd_goto(0);
  2387  0719  3000               	movlw	(0)
  2388  071A  120A  158A  2642   	fcall	_lcd_goto
              120A  118A         
  2389                           	line	227
  2390                           	
  2391  071F                     l3008:	
  2392                           ;PR25.c: 227: send_string("ID no: ");
  2393  071F  3093               	movlw	((STR_11-__stringbase))&0ffh
  2394  0720  120A  158A  2680   	fcall	_send_string
              120A  118A         
  2395                           	line	228
  2396                           	
  2397  0725                     l3010:	
  2398                           ;PR25.c: 228: lcd_goto(7);
  2399  0725  3007               	movlw	(07h)
  2400  0726  120A  158A  2642   	fcall	_lcd_goto
              120A  118A         
  2401                           	line	229
  2402                           	
  2403  072B                     l3012:	
  2404                           ;PR25.c: 229: send_dec(convert1,3);
  2405  072B  1283               	bcf	status, 5	;RP0=0, select bank0
  2406  072C  1303               	bcf	status, 6	;RP1=0, select bank0
  2407  072D  0850               	movf	(main@convert1),w
  2408  072E  00A5               	movwf	(??_main+0)+0
  2409  072F  01A6               	clrf	((??_main+0)+0+1)
  2410  0730  01A7               	clrf	((??_main+0)+0+2)
  2411  0731  01A8               	clrf	((??_main+0)+0+3)
  2412  0732  0828               	movf	3+(??_main+0)+0,w
  2413  0733  00A3               	movwf	(?_send_dec+3)
  2414  0734  0827               	movf	2+(??_main+0)+0,w
  2415  0735  00A2               	movwf	(?_send_dec+2)
  2416  0736  0826               	movf	1+(??_main+0)+0,w
  2417  0737  00A1               	movwf	(?_send_dec+1)
  2418  0738  0825               	movf	0+(??_main+0)+0,w
  2419  0739  00A0               	movwf	(?_send_dec)
  2420                           
  2421  073A  3003               	movlw	(03h)
  2422  073B  00A9               	movwf	(??_main+4)+0
  2423  073C  0829               	movf	(??_main+4)+0,w
  2424  073D  00A4               	movwf	0+(?_send_dec)+04h
  2425  073E  120A  118A  20B8   	fcall	_send_dec
              120A  118A         
  2426                           	line	230
  2427                           	
  2428  0743                     l3014:	
  2429                           ;PR25.c: 230: lcd_goto(10);
  2430  0743  300A               	movlw	(0Ah)
  2431  0744  120A  158A  2642   	fcall	_lcd_goto
              120A  118A         
  2432                           	line	231
  2433                           	
  2434  0749                     l3016:	
  2435                           ;PR25.c: 231: send_dec(convert2,5);
  2436  0749  1283               	bcf	status, 5	;RP0=0, select bank0
  2437  074A  1303               	bcf	status, 6	;RP1=0, select bank0
  2438  074B  084E               	movf	(main@convert2),w
  2439  074C  00A0               	movwf	(?_send_dec)
  2440  074D  084F               	movf	(main@convert2+1),w
  2441  074E  00A1               	movwf	((?_send_dec))+1
  2442  074F  01A2               	clrf	2+((?_send_dec))
  2443  0750  01A3               	clrf	3+((?_send_dec))
  2444  0751  3005               	movlw	(05h)
  2445  0752  00A5               	movwf	(??_main+0)+0
  2446  0753  0825               	movf	(??_main+0)+0,w
  2447  0754  00A4               	movwf	0+(?_send_dec)+04h
  2448  0755  120A  118A  20B8   	fcall	_send_dec
              120A  118A         
  2449                           	line	232
  2450                           	
  2451  075A                     l3018:	
  2452                           ;PR25.c: 232: lcd_goto(20);
  2453  075A  3014               	movlw	(014h)
  2454  075B  120A  158A  2642   	fcall	_lcd_goto
              120A  118A         
  2455                           	line	233
  2456                           ;PR25.c: 233: send_string("User ID saved.");
  2457  0760  3044               	movlw	((STR_12-__stringbase))&0ffh
  2458  0761  120A  158A  2680   	fcall	_send_string
              120A  118A         
  2459                           	line	234
  2460                           ;PR25.c: 234: break;
  2461  0766  2FC2               	goto	l3038
  2462                           	line	236
  2463                           ;PR25.c: 236: default:
  2464                           	
  2465  0767                     l608:	
  2466                           	line	237
  2467                           ;PR25.c: 237: RA1=0;
  2468  0767  1085               	bcf	(41/8),(41)&7
  2469                           	line	238
  2470                           ;PR25.c: 238: RC3=1;
  2471  0768  1587               	bsf	(59/8),(59)&7
  2472                           	line	239
  2473                           	
  2474  0769                     l3020:	
  2475                           ;PR25.c: 239: lcd_goto(0);
  2476  0769  3000               	movlw	(0)
  2477  076A  120A  158A  2642   	fcall	_lcd_goto
              120A  118A         
  2478                           	line	240
  2479                           	
  2480  076F                     l3022:	
  2481                           ;PR25.c: 240: send_string("ID no: ");
  2482  076F  3093               	movlw	((STR_13-__stringbase))&0ffh
  2483  0770  120A  158A  2680   	fcall	_send_string
              120A  118A         
  2484                           	line	241
  2485                           	
  2486  0775                     l3024:	
  2487                           ;PR25.c: 241: lcd_goto(7);
  2488  0775  3007               	movlw	(07h)
  2489  0776  120A  158A  2642   	fcall	_lcd_goto
              120A  118A         
  2490                           	line	242
  2491                           	
  2492  077B                     l3026:	
  2493                           ;PR25.c: 242: send_dec(convert1,3);
  2494  077B  1283               	bcf	status, 5	;RP0=0, select bank0
  2495  077C  1303               	bcf	status, 6	;RP1=0, select bank0
  2496  077D  0850               	movf	(main@convert1),w
  2497  077E  00A5               	movwf	(??_main+0)+0
  2498  077F  01A6               	clrf	((??_main+0)+0+1)
  2499  0780  01A7               	clrf	((??_main+0)+0+2)
  2500  0781  01A8               	clrf	((??_main+0)+0+3)
  2501  0782  0828               	movf	3+(??_main+0)+0,w
  2502  0783  00A3               	movwf	(?_send_dec+3)
  2503  0784  0827               	movf	2+(??_main+0)+0,w
  2504  0785  00A2               	movwf	(?_send_dec+2)
  2505  0786  0826               	movf	1+(??_main+0)+0,w
  2506  0787  00A1               	movwf	(?_send_dec+1)
  2507  0788  0825               	movf	0+(??_main+0)+0,w
  2508  0789  00A0               	movwf	(?_send_dec)
  2509                           
  2510  078A  3003               	movlw	(03h)
  2511  078B  00A9               	movwf	(??_main+4)+0
  2512  078C  0829               	movf	(??_main+4)+0,w
  2513  078D  00A4               	movwf	0+(?_send_dec)+04h
  2514  078E  120A  118A  20B8   	fcall	_send_dec
              120A  118A         
  2515                           	line	243
  2516                           	
  2517  0793                     l3028:	
  2518                           ;PR25.c: 243: lcd_goto(10);
  2519  0793  300A               	movlw	(0Ah)
  2520  0794  120A  158A  2642   	fcall	_lcd_goto
              120A  118A         
  2521                           	line	244
  2522                           	
  2523  0799                     l3030:	
  2524                           ;PR25.c: 244: send_dec(convert2,5);
  2525  0799  1283               	bcf	status, 5	;RP0=0, select bank0
  2526  079A  1303               	bcf	status, 6	;RP1=0, select bank0
  2527  079B  084E               	movf	(main@convert2),w
  2528  079C  00A0               	movwf	(?_send_dec)
  2529  079D  084F               	movf	(main@convert2+1),w
  2530  079E  00A1               	movwf	((?_send_dec))+1
  2531  079F  01A2               	clrf	2+((?_send_dec))
  2532  07A0  01A3               	clrf	3+((?_send_dec))
  2533  07A1  3005               	movlw	(05h)
  2534  07A2  00A5               	movwf	(??_main+0)+0
  2535  07A3  0825               	movf	(??_main+0)+0,w
  2536  07A4  00A4               	movwf	0+(?_send_dec)+04h
  2537  07A5  120A  118A  20B8   	fcall	_send_dec
              120A  118A         
  2538                           	line	245
  2539                           	
  2540  07AA                     l3032:	
  2541                           ;PR25.c: 245: lcd_goto(20);
  2542  07AA  3014               	movlw	(014h)
  2543  07AB  120A  158A  2642   	fcall	_lcd_goto
              120A  118A         
  2544                           	line	246
  2545                           ;PR25.c: 246: send_string("User not found.");
  2546  07B0  3024               	movlw	((STR_14-__stringbase))&0ffh
  2547  07B1  120A  158A  2680   	fcall	_send_string
              120A  118A         
  2548                           	line	247
  2549                           ;PR25.c: 247: break;
  2550  07B6  2FC2               	goto	l3038
  2551                           	line	248
  2552                           	
  2553  07B7                     l3034:	
  2554                           ;PR25.c: 248: }
  2555  07B7  2FC2               	goto	l3038
  2556                           	line	188
  2557                           	
  2558  07B8                     l598:	
  2559                           	
  2560  07B8                     l3036:	
  2561  07B8  1283               	bcf	status, 5	;RP0=0, select bank0
  2562  07B9  1303               	bcf	status, 6	;RP1=0, select bank0
  2563  07BA  0844               	movf	(main@database),w
  2564                           	; Switch size 1, requested type "space"
  2565                           ; Number of cases is 2, Range of values is 1 to 2
  2566                           ; switch strategies available:
  2567                           ; Name         Bytes Cycles
  2568                           ; simple_byte     7     4 (average)
  2569                           ; direct_byte    28    22 (fixed)
  2570                           ;	Chosen strategy is simple_byte
  2571                           
  2572  07BB  3A01               	xorlw	1^0	; case 1
  2573  07BC  1903               	skipnz
  2574  07BD  2E2B               	goto	l599
  2575  07BE  3A03               	xorlw	2^1	; case 2
  2576  07BF  1903               	skipnz
  2577  07C0  2F12               	goto	l607
  2578  07C1  2F67               	goto	l608
  2579                           
  2580                           	line	248
  2581                           	
  2582  07C2                     l606:	
  2583                           	line	250
  2584                           	
  2585  07C2                     l3038:	
  2586                           ;PR25.c: 250: for(repeat=12; repeat>0; repeat--)
  2587  07C2  300C               	movlw	(0Ch)
  2588  07C3  1283               	bcf	status, 5	;RP0=0, select bank0
  2589  07C4  1303               	bcf	status, 6	;RP1=0, select bank0
  2590  07C5  00A5               	movwf	(??_main+0)+0
  2591  07C6  0825               	movf	(??_main+0)+0,w
  2592  07C7  00D1               	movwf	(main@repeat)
  2593                           	
  2594  07C8                     l3040:	
  2595  07C8  08D1               	movf	(main@repeat),f
  2596  07C9  1D03               	skipz
  2597  07CA  2FCC               	goto	u3751
  2598  07CB  2FCD               	goto	u3750
  2599  07CC                     u3751:
  2600  07CC  2FCF               	goto	l3044
  2601  07CD                     u3750:
  2602  07CD  2FE6               	goto	l3050
  2603                           	
  2604  07CE                     l3042:	
  2605  07CE  2FE6               	goto	l3050
  2606                           	line	251
  2607                           	
  2608  07CF                     l609:	
  2609                           	line	252
  2610                           	
  2611  07CF                     l3044:	
  2612                           ;PR25.c: 251: {
  2613                           ;PR25.c: 252: delay(1000000);
  2614  07CF  3000               	movlw	0
  2615  07D0  00F3               	movwf	(?_delay+3)
  2616  07D1  300F               	movlw	0Fh
  2617  07D2  00F2               	movwf	(?_delay+2)
  2618  07D3  3042               	movlw	042h
  2619  07D4  00F1               	movwf	(?_delay+1)
  2620  07D5  3040               	movlw	040h
  2621  07D6  00F0               	movwf	(?_delay)
  2622                           
  2623  07D7  120A  158A  26A6   	fcall	_delay
              120A  118A         
  2624                           	line	250
  2625                           	
  2626  07DC                     l3046:	
  2627  07DC  3001               	movlw	low(01h)
  2628  07DD  1283               	bcf	status, 5	;RP0=0, select bank0
  2629  07DE  1303               	bcf	status, 6	;RP1=0, select bank0
  2630  07DF  02D1               	subwf	(main@repeat),f
  2631                           	
  2632  07E0                     l3048:	
  2633  07E0  08D1               	movf	(main@repeat),f
  2634  07E1  1D03               	skipz
  2635  07E2  2FE4               	goto	u3761
  2636  07E3  2FE5               	goto	u3760
  2637  07E4                     u3761:
  2638  07E4  2FCF               	goto	l3044
  2639  07E5                     u3760:
  2640  07E5  2FE6               	goto	l3050
  2641                           	
  2642  07E6                     l610:	
  2643                           	line	255
  2644                           	
  2645  07E6                     l3050:	
  2646                           ;PR25.c: 253: }
  2647                           ;PR25.c: 255: i=0;
  2648  07E6  1003               	clrc
  2649  07E7  3000               	movlw	0
  2650  07E8  1803               	btfsc	status,0
  2651  07E9  3001               	movlw	1
  2652  07EA  00D2               	movwf	(main@i)
  2653                           	line	256
  2654                           	
  2655  07EB                     l3052:	
  2656                           ;PR25.c: 256: RC3=0;
  2657  07EB  1187               	bcf	(59/8),(59)&7
  2658                           	line	257
  2659                           ;PR25.c: 257: database=0;
  2660  07EC  1003               	clrc
  2661  07ED  3000               	movlw	0
  2662  07EE  1803               	btfsc	status,0
  2663  07EF  3001               	movlw	1
  2664  07F0  00C4               	movwf	(main@database)
  2665                           	line	258
  2666                           	
  2667  07F1                     l3054:	
  2668                           ;PR25.c: 258: RA1=0;
  2669  07F1  1085               	bcf	(41/8),(41)&7
  2670                           	line	259
  2671                           ;PR25.c: 259: convert1=0;
  2672  07F2  1003               	clrc
  2673  07F3  3000               	movlw	0
  2674  07F4  1803               	btfsc	status,0
  2675  07F5  3001               	movlw	1
  2676  07F6  00D0               	movwf	(main@convert1)
  2677                           	line	260
  2678                           	
  2679  07F7                     l3056:	
  2680                           ;PR25.c: 260: convert2=0;
  2681  07F7  3000               	movlw	low(0)
  2682  07F8  00CE               	movwf	(main@convert2)
  2683  07F9  3000               	movlw	high(0)
  2684  07FA  00CF               	movwf	((main@convert2))+1
  2685  07FB  2BBB               	goto	l2790
  2686                           	line	261
  2687                           	
  2688  07FC                     l611:	
  2689                           	line	74
  2690  07FC  2BBB               	goto	l2790
  2691                           	
  2692  07FD                     l612:	
  2693                           	line	262
  2694                           	
  2695  07FD                     l613:	
  2696                           	global	start
  2697  07FD  120A  118A  2800   	ljmp	start
  2698                           	opt stack 0
  2699                           GLOBAL	__end_of_main
  2700  0800                     	__end_of_main:
  2701 ;; =============== function _main ends ============
  2702                           
  2703                           	signat	_main,88
  2704                           	global	_send_dec
  2705                           psect	text251,local,class=CODE,delta=2
  2706                           global __ptext251
  2707  00B8                     __ptext251:
  2708                           
  2709 ;; *************** function _send_dec *****************
  2710 ;; Defined at:
  2711 ;;		line 314 in file "C:\Users\Phang\Desktop\9.80\PR 25\PR25.c"
  2712 ;; Parameters:    Size  Location     Type
  2713 ;;  data            4    0[BANK0 ] unsigned long 
  2714 ;;  num_dig         1    4[BANK0 ] unsigned char 
  2715 ;; Auto vars:     Size  Location     Type
  2716 ;;		None
  2717 ;; Return value:  Size  Location     Type
  2718 ;;		None               void
  2719 ;; Registers used:
  2720 ;;		wreg, status,2, status,0, btemp+1, pclath, cstack
  2721 ;; Tracked objects:
  2722 ;;		On entry : 0/0
  2723 ;;		On exit  : 0/0
  2724 ;;		Unchanged: 0/0
  2725 ;; Data sizes:     COMMON   BANK0   BANK1   BANK3   BANK2
  2726 ;;      Params:         0       5       0       0       0
  2727 ;;      Locals:         0       0       0       0       0
  2728 ;;      Temps:          0       0       0       0       0
  2729 ;;      Totals:         0       5       0       0       0
  2730 ;;Total ram usage:        5 bytes
  2731 ;; Hardware stack levels used:    1
  2732 ;; Hardware stack levels required when called:    3
  2733 ;; This function calls:
  2734 ;;		___llmod
  2735 ;;		___lldiv
  2736 ;;		_send_char
  2737 ;; This function is called by:
  2738 ;;		_main
  2739 ;; This function uses a non-reentrant model
  2740 ;;
  2741                           psect	text251
  2742                           	file	"C:\Users\Phang\Desktop\9.80\PR 25\PR25.c"
  2743                           	line	314
  2744                           	global	__size_of_send_dec
  2745  0292                     	__size_of_send_dec	equ	__end_of_send_dec-_send_dec
  2746                           	
  2747  00B8                     _send_dec:	
  2748                           	opt	stack 4
  2749                           ; Regs used in _send_dec: [wreg+status,2+status,0+btemp+1+pclath+cstack]
  2750                           	line	315
  2751                           	
  2752  00B8                     l2692:	
  2753                           ;PR25.c: 315: if(num_dig>=10)
  2754  00B8  300A               	movlw	(0Ah)
  2755  00B9  1283               	bcf	status, 5	;RP0=0, select bank0
  2756  00BA  1303               	bcf	status, 6	;RP1=0, select bank0
  2757  00BB  0224               	subwf	(send_dec@num_dig),w
  2758  00BC  1C03               	skipc
  2759  00BD  28BF               	goto	u3071
  2760  00BE  28C0               	goto	u3070
  2761  00BF                     u3071:
  2762  00BF  28FC               	goto	l2698
  2763  00C0                     u3070:
  2764                           	line	317
  2765                           	
  2766  00C0                     l2694:	
  2767                           ;PR25.c: 316: {
  2768                           ;PR25.c: 317: data=data%10000000000;
  2769  00C0  3054               	movlw	054h
  2770  00C1  00F3               	movwf	(?___llmod+3)
  2771  00C2  300B               	movlw	0Bh
  2772  00C3  00F2               	movwf	(?___llmod+2)
  2773  00C4  30E4               	movlw	0E4h
  2774  00C5  00F1               	movwf	(?___llmod+1)
  2775  00C6  3000               	movlw	0
  2776  00C7  00F0               	movwf	(?___llmod)
  2777                           
  2778  00C8  0823               	movf	(send_dec@data+3),w
  2779  00C9  00F7               	movwf	3+(?___llmod)+04h
  2780  00CA  0822               	movf	(send_dec@data+2),w
  2781  00CB  00F6               	movwf	2+(?___llmod)+04h
  2782  00CC  0821               	movf	(send_dec@data+1),w
  2783  00CD  00F5               	movwf	1+(?___llmod)+04h
  2784  00CE  0820               	movf	(send_dec@data),w
  2785  00CF  00F4               	movwf	0+(?___llmod)+04h
  2786                           
  2787  00D0  120A  158A  2736   	fcall	___llmod
              120A  118A         
  2788  00D5  0873               	movf	(3+(?___llmod)),w
  2789  00D6  1283               	bcf	status, 5	;RP0=0, select bank0
  2790  00D7  1303               	bcf	status, 6	;RP1=0, select bank0
  2791  00D8  00A3               	movwf	(send_dec@data+3)
  2792  00D9  0872               	movf	(2+(?___llmod)),w
  2793  00DA  00A2               	movwf	(send_dec@data+2)
  2794  00DB  0871               	movf	(1+(?___llmod)),w
  2795  00DC  00A1               	movwf	(send_dec@data+1)
  2796  00DD  0870               	movf	(0+(?___llmod)),w
  2797  00DE  00A0               	movwf	(send_dec@data)
  2798                           
  2799                           	line	318
  2800                           	
  2801  00DF                     l2696:	
  2802                           ;PR25.c: 318: send_char(data/1000000000+0x30);
  2803  00DF  303B               	movlw	03Bh
  2804  00E0  00F3               	movwf	(?___lldiv+3)
  2805  00E1  309A               	movlw	09Ah
  2806  00E2  00F2               	movwf	(?___lldiv+2)
  2807  00E3  30CA               	movlw	0CAh
  2808  00E4  00F1               	movwf	(?___lldiv+1)
  2809  00E5  3000               	movlw	0
  2810  00E6  00F0               	movwf	(?___lldiv)
  2811                           
  2812  00E7  0823               	movf	(send_dec@data+3),w
  2813  00E8  00F7               	movwf	3+(?___lldiv)+04h
  2814  00E9  0822               	movf	(send_dec@data+2),w
  2815  00EA  00F6               	movwf	2+(?___lldiv)+04h
  2816  00EB  0821               	movf	(send_dec@data+1),w
  2817  00EC  00F5               	movwf	1+(?___lldiv)+04h
  2818  00ED  0820               	movf	(send_dec@data),w
  2819  00EE  00F4               	movwf	0+(?___lldiv)+04h
  2820                           
  2821  00EF  120A  158A  2792   	fcall	___lldiv
              120A  118A         
  2822  00F4  0870               	movf	0+(((0+(?___lldiv)))),w
  2823  00F5  3E30               	addlw	030h
  2824  00F6  120A  158A  2629   	fcall	_send_char
              120A  118A         
  2825  00FB  28FC               	goto	l2698
  2826                           	line	319
  2827                           	
  2828  00FC                     l630:	
  2829                           	line	320
  2830                           	
  2831  00FC                     l2698:	
  2832                           ;PR25.c: 319: }
  2833                           ;PR25.c: 320: if(num_dig>=9)
  2834  00FC  3009               	movlw	(09h)
  2835  00FD  1283               	bcf	status, 5	;RP0=0, select bank0
  2836  00FE  1303               	bcf	status, 6	;RP1=0, select bank0
  2837  00FF  0224               	subwf	(send_dec@num_dig),w
  2838  0100  1C03               	skipc
  2839  0101  2903               	goto	u3081
  2840  0102  2904               	goto	u3080
  2841  0103                     u3081:
  2842  0103  2940               	goto	l2704
  2843  0104                     u3080:
  2844                           	line	322
  2845                           	
  2846  0104                     l2700:	
  2847                           ;PR25.c: 321: {
  2848                           ;PR25.c: 322: data=data%1000000000;
  2849  0104  303B               	movlw	03Bh
  2850  0105  00F3               	movwf	(?___llmod+3)
  2851  0106  309A               	movlw	09Ah
  2852  0107  00F2               	movwf	(?___llmod+2)
  2853  0108  30CA               	movlw	0CAh
  2854  0109  00F1               	movwf	(?___llmod+1)
  2855  010A  3000               	movlw	0
  2856  010B  00F0               	movwf	(?___llmod)
  2857                           
  2858  010C  0823               	movf	(send_dec@data+3),w
  2859  010D  00F7               	movwf	3+(?___llmod)+04h
  2860  010E  0822               	movf	(send_dec@data+2),w
  2861  010F  00F6               	movwf	2+(?___llmod)+04h
  2862  0110  0821               	movf	(send_dec@data+1),w
  2863  0111  00F5               	movwf	1+(?___llmod)+04h
  2864  0112  0820               	movf	(send_dec@data),w
  2865  0113  00F4               	movwf	0+(?___llmod)+04h
  2866                           
  2867  0114  120A  158A  2736   	fcall	___llmod
              120A  118A         
  2868  0119  0873               	movf	(3+(?___llmod)),w
  2869  011A  1283               	bcf	status, 5	;RP0=0, select bank0
  2870  011B  1303               	bcf	status, 6	;RP1=0, select bank0
  2871  011C  00A3               	movwf	(send_dec@data+3)
  2872  011D  0872               	movf	(2+(?___llmod)),w
  2873  011E  00A2               	movwf	(send_dec@data+2)
  2874  011F  0871               	movf	(1+(?___llmod)),w
  2875  0120  00A1               	movwf	(send_dec@data+1)
  2876  0121  0870               	movf	(0+(?___llmod)),w
  2877  0122  00A0               	movwf	(send_dec@data)
  2878                           
  2879                           	line	323
  2880                           	
  2881  0123                     l2702:	
  2882                           ;PR25.c: 323: send_char(data/100000000+0x30);
  2883  0123  3005               	movlw	05h
  2884  0124  00F3               	movwf	(?___lldiv+3)
  2885  0125  30F5               	movlw	0F5h
  2886  0126  00F2               	movwf	(?___lldiv+2)
  2887  0127  30E1               	movlw	0E1h
  2888  0128  00F1               	movwf	(?___lldiv+1)
  2889  0129  3000               	movlw	0
  2890  012A  00F0               	movwf	(?___lldiv)
  2891                           
  2892  012B  0823               	movf	(send_dec@data+3),w
  2893  012C  00F7               	movwf	3+(?___lldiv)+04h
  2894  012D  0822               	movf	(send_dec@data+2),w
  2895  012E  00F6               	movwf	2+(?___lldiv)+04h
  2896  012F  0821               	movf	(send_dec@data+1),w
  2897  0130  00F5               	movwf	1+(?___lldiv)+04h
  2898  0131  0820               	movf	(send_dec@data),w
  2899  0132  00F4               	movwf	0+(?___lldiv)+04h
  2900                           
  2901  0133  120A  158A  2792   	fcall	___lldiv
              120A  118A         
  2902  0138  0870               	movf	0+(((0+(?___lldiv)))),w
  2903  0139  3E30               	addlw	030h
  2904  013A  120A  158A  2629   	fcall	_send_char
              120A  118A         
  2905  013F  2940               	goto	l2704
  2906                           	line	324
  2907                           	
  2908  0140                     l631:	
  2909                           	line	325
  2910                           	
  2911  0140                     l2704:	
  2912                           ;PR25.c: 324: }
  2913                           ;PR25.c: 325: if(num_dig>=8)
  2914  0140  3008               	movlw	(08h)
  2915  0141  1283               	bcf	status, 5	;RP0=0, select bank0
  2916  0142  1303               	bcf	status, 6	;RP1=0, select bank0
  2917  0143  0224               	subwf	(send_dec@num_dig),w
  2918  0144  1C03               	skipc
  2919  0145  2947               	goto	u3091
  2920  0146  2948               	goto	u3090
  2921  0147                     u3091:
  2922  0147  2984               	goto	l2710
  2923  0148                     u3090:
  2924                           	line	327
  2925                           	
  2926  0148                     l2706:	
  2927                           ;PR25.c: 326: {
  2928                           ;PR25.c: 327: data=data%100000000;
  2929  0148  3005               	movlw	05h
  2930  0149  00F3               	movwf	(?___llmod+3)
  2931  014A  30F5               	movlw	0F5h
  2932  014B  00F2               	movwf	(?___llmod+2)
  2933  014C  30E1               	movlw	0E1h
  2934  014D  00F1               	movwf	(?___llmod+1)
  2935  014E  3000               	movlw	0
  2936  014F  00F0               	movwf	(?___llmod)
  2937                           
  2938  0150  0823               	movf	(send_dec@data+3),w
  2939  0151  00F7               	movwf	3+(?___llmod)+04h
  2940  0152  0822               	movf	(send_dec@data+2),w
  2941  0153  00F6               	movwf	2+(?___llmod)+04h
  2942  0154  0821               	movf	(send_dec@data+1),w
  2943  0155  00F5               	movwf	1+(?___llmod)+04h
  2944  0156  0820               	movf	(send_dec@data),w
  2945  0157  00F4               	movwf	0+(?___llmod)+04h
  2946                           
  2947  0158  120A  158A  2736   	fcall	___llmod
              120A  118A         
  2948  015D  0873               	movf	(3+(?___llmod)),w
  2949  015E  1283               	bcf	status, 5	;RP0=0, select bank0
  2950  015F  1303               	bcf	status, 6	;RP1=0, select bank0
  2951  0160  00A3               	movwf	(send_dec@data+3)
  2952  0161  0872               	movf	(2+(?___llmod)),w
  2953  0162  00A2               	movwf	(send_dec@data+2)
  2954  0163  0871               	movf	(1+(?___llmod)),w
  2955  0164  00A1               	movwf	(send_dec@data+1)
  2956  0165  0870               	movf	(0+(?___llmod)),w
  2957  0166  00A0               	movwf	(send_dec@data)
  2958                           
  2959                           	line	328
  2960                           	
  2961  0167                     l2708:	
  2962                           ;PR25.c: 328: send_char(data/10000000+0x30);
  2963  0167  3000               	movlw	0
  2964  0168  00F3               	movwf	(?___lldiv+3)
  2965  0169  3098               	movlw	098h
  2966  016A  00F2               	movwf	(?___lldiv+2)
  2967  016B  3096               	movlw	096h
  2968  016C  00F1               	movwf	(?___lldiv+1)
  2969  016D  3080               	movlw	080h
  2970  016E  00F0               	movwf	(?___lldiv)
  2971                           
  2972  016F  0823               	movf	(send_dec@data+3),w
  2973  0170  00F7               	movwf	3+(?___lldiv)+04h
  2974  0171  0822               	movf	(send_dec@data+2),w
  2975  0172  00F6               	movwf	2+(?___lldiv)+04h
  2976  0173  0821               	movf	(send_dec@data+1),w
  2977  0174  00F5               	movwf	1+(?___lldiv)+04h
  2978  0175  0820               	movf	(send_dec@data),w
  2979  0176  00F4               	movwf	0+(?___lldiv)+04h
  2980                           
  2981  0177  120A  158A  2792   	fcall	___lldiv
              120A  118A         
  2982  017C  0870               	movf	0+(((0+(?___lldiv)))),w
  2983  017D  3E30               	addlw	030h
  2984  017E  120A  158A  2629   	fcall	_send_char
              120A  118A         
  2985  0183  2984               	goto	l2710
  2986                           	line	329
  2987                           	
  2988  0184                     l632:	
  2989                           	line	330
  2990                           	
  2991  0184                     l2710:	
  2992                           ;PR25.c: 329: }
  2993                           ;PR25.c: 330: if(num_dig>=7)
  2994  0184  3007               	movlw	(07h)
  2995  0185  1283               	bcf	status, 5	;RP0=0, select bank0
  2996  0186  1303               	bcf	status, 6	;RP1=0, select bank0
  2997  0187  0224               	subwf	(send_dec@num_dig),w
  2998  0188  1C03               	skipc
  2999  0189  298B               	goto	u3101
  3000  018A  298C               	goto	u3100
  3001  018B                     u3101:
  3002  018B  29C8               	goto	l2716
  3003  018C                     u3100:
  3004                           	line	332
  3005                           	
  3006  018C                     l2712:	
  3007                           ;PR25.c: 331: {
  3008                           ;PR25.c: 332: data=data%10000000;
  3009  018C  3000               	movlw	0
  3010  018D  00F3               	movwf	(?___llmod+3)
  3011  018E  3098               	movlw	098h
  3012  018F  00F2               	movwf	(?___llmod+2)
  3013  0190  3096               	movlw	096h
  3014  0191  00F1               	movwf	(?___llmod+1)
  3015  0192  3080               	movlw	080h
  3016  0193  00F0               	movwf	(?___llmod)
  3017                           
  3018  0194  0823               	movf	(send_dec@data+3),w
  3019  0195  00F7               	movwf	3+(?___llmod)+04h
  3020  0196  0822               	movf	(send_dec@data+2),w
  3021  0197  00F6               	movwf	2+(?___llmod)+04h
  3022  0198  0821               	movf	(send_dec@data+1),w
  3023  0199  00F5               	movwf	1+(?___llmod)+04h
  3024  019A  0820               	movf	(send_dec@data),w
  3025  019B  00F4               	movwf	0+(?___llmod)+04h
  3026                           
  3027  019C  120A  158A  2736   	fcall	___llmod
              120A  118A         
  3028  01A1  0873               	movf	(3+(?___llmod)),w
  3029  01A2  1283               	bcf	status, 5	;RP0=0, select bank0
  3030  01A3  1303               	bcf	status, 6	;RP1=0, select bank0
  3031  01A4  00A3               	movwf	(send_dec@data+3)
  3032  01A5  0872               	movf	(2+(?___llmod)),w
  3033  01A6  00A2               	movwf	(send_dec@data+2)
  3034  01A7  0871               	movf	(1+(?___llmod)),w
  3035  01A8  00A1               	movwf	(send_dec@data+1)
  3036  01A9  0870               	movf	(0+(?___llmod)),w
  3037  01AA  00A0               	movwf	(send_dec@data)
  3038                           
  3039                           	line	333
  3040                           	
  3041  01AB                     l2714:	
  3042                           ;PR25.c: 333: send_char(data/1000000+0x30);
  3043  01AB  3000               	movlw	0
  3044  01AC  00F3               	movwf	(?___lldiv+3)
  3045  01AD  300F               	movlw	0Fh
  3046  01AE  00F2               	movwf	(?___lldiv+2)
  3047  01AF  3042               	movlw	042h
  3048  01B0  00F1               	movwf	(?___lldiv+1)
  3049  01B1  3040               	movlw	040h
  3050  01B2  00F0               	movwf	(?___lldiv)
  3051                           
  3052  01B3  0823               	movf	(send_dec@data+3),w
  3053  01B4  00F7               	movwf	3+(?___lldiv)+04h
  3054  01B5  0822               	movf	(send_dec@data+2),w
  3055  01B6  00F6               	movwf	2+(?___lldiv)+04h
  3056  01B7  0821               	movf	(send_dec@data+1),w
  3057  01B8  00F5               	movwf	1+(?___lldiv)+04h
  3058  01B9  0820               	movf	(send_dec@data),w
  3059  01BA  00F4               	movwf	0+(?___lldiv)+04h
  3060                           
  3061  01BB  120A  158A  2792   	fcall	___lldiv
              120A  118A         
  3062  01C0  0870               	movf	0+(((0+(?___lldiv)))),w
  3063  01C1  3E30               	addlw	030h
  3064  01C2  120A  158A  2629   	fcall	_send_char
              120A  118A         
  3065  01C7  29C8               	goto	l2716
  3066                           	line	334
  3067                           	
  3068  01C8                     l633:	
  3069                           	line	335
  3070                           	
  3071  01C8                     l2716:	
  3072                           ;PR25.c: 334: }
  3073                           ;PR25.c: 335: if(num_dig>=6)
  3074  01C8  3006               	movlw	(06h)
  3075  01C9  1283               	bcf	status, 5	;RP0=0, select bank0
  3076  01CA  1303               	bcf	status, 6	;RP1=0, select bank0
  3077  01CB  0224               	subwf	(send_dec@num_dig),w
  3078  01CC  1C03               	skipc
  3079  01CD  29CF               	goto	u3111
  3080  01CE  29D0               	goto	u3110
  3081  01CF                     u3111:
  3082  01CF  2A0C               	goto	l2722
  3083  01D0                     u3110:
  3084                           	line	337
  3085                           	
  3086  01D0                     l2718:	
  3087                           ;PR25.c: 336: {
  3088                           ;PR25.c: 337: data=data%1000000;
  3089  01D0  3000               	movlw	0
  3090  01D1  00F3               	movwf	(?___llmod+3)
  3091  01D2  300F               	movlw	0Fh
  3092  01D3  00F2               	movwf	(?___llmod+2)
  3093  01D4  3042               	movlw	042h
  3094  01D5  00F1               	movwf	(?___llmod+1)
  3095  01D6  3040               	movlw	040h
  3096  01D7  00F0               	movwf	(?___llmod)
  3097                           
  3098  01D8  0823               	movf	(send_dec@data+3),w
  3099  01D9  00F7               	movwf	3+(?___llmod)+04h
  3100  01DA  0822               	movf	(send_dec@data+2),w
  3101  01DB  00F6               	movwf	2+(?___llmod)+04h
  3102  01DC  0821               	movf	(send_dec@data+1),w
  3103  01DD  00F5               	movwf	1+(?___llmod)+04h
  3104  01DE  0820               	movf	(send_dec@data),w
  3105  01DF  00F4               	movwf	0+(?___llmod)+04h
  3106                           
  3107  01E0  120A  158A  2736   	fcall	___llmod
              120A  118A         
  3108  01E5  0873               	movf	(3+(?___llmod)),w
  3109  01E6  1283               	bcf	status, 5	;RP0=0, select bank0
  3110  01E7  1303               	bcf	status, 6	;RP1=0, select bank0
  3111  01E8  00A3               	movwf	(send_dec@data+3)
  3112  01E9  0872               	movf	(2+(?___llmod)),w
  3113  01EA  00A2               	movwf	(send_dec@data+2)
  3114  01EB  0871               	movf	(1+(?___llmod)),w
  3115  01EC  00A1               	movwf	(send_dec@data+1)
  3116  01ED  0870               	movf	(0+(?___llmod)),w
  3117  01EE  00A0               	movwf	(send_dec@data)
  3118                           
  3119                           	line	338
  3120                           	
  3121  01EF                     l2720:	
  3122                           ;PR25.c: 338: send_char(data/100000+0x30);
  3123  01EF  3000               	movlw	0
  3124  01F0  00F3               	movwf	(?___lldiv+3)
  3125  01F1  3001               	movlw	01h
  3126  01F2  00F2               	movwf	(?___lldiv+2)
  3127  01F3  3086               	movlw	086h
  3128  01F4  00F1               	movwf	(?___lldiv+1)
  3129  01F5  30A0               	movlw	0A0h
  3130  01F6  00F0               	movwf	(?___lldiv)
  3131                           
  3132  01F7  0823               	movf	(send_dec@data+3),w
  3133  01F8  00F7               	movwf	3+(?___lldiv)+04h
  3134  01F9  0822               	movf	(send_dec@data+2),w
  3135  01FA  00F6               	movwf	2+(?___lldiv)+04h
  3136  01FB  0821               	movf	(send_dec@data+1),w
  3137  01FC  00F5               	movwf	1+(?___lldiv)+04h
  3138  01FD  0820               	movf	(send_dec@data),w
  3139  01FE  00F4               	movwf	0+(?___lldiv)+04h
  3140                           
  3141  01FF  120A  158A  2792   	fcall	___lldiv
              120A  118A         
  3142  0204  0870               	movf	0+(((0+(?___lldiv)))),w
  3143  0205  3E30               	addlw	030h
  3144  0206  120A  158A  2629   	fcall	_send_char
              120A  118A         
  3145  020B  2A0C               	goto	l2722
  3146                           	line	339
  3147                           	
  3148  020C                     l634:	
  3149                           	line	340
  3150                           	
  3151  020C                     l2722:	
  3152                           ;PR25.c: 339: }
  3153                           ;PR25.c: 340: if(num_dig>=5)
  3154  020C  3005               	movlw	(05h)
  3155  020D  1283               	bcf	status, 5	;RP0=0, select bank0
  3156  020E  1303               	bcf	status, 6	;RP1=0, select bank0
  3157  020F  0224               	subwf	(send_dec@num_dig),w
  3158  0210  1C03               	skipc
  3159  0211  2A13               	goto	u3121
  3160  0212  2A14               	goto	u3120
  3161  0213                     u3121:
  3162  0213  2A50               	goto	l2728
  3163  0214                     u3120:
  3164                           	line	342
  3165                           	
  3166  0214                     l2724:	
  3167                           ;PR25.c: 341: {
  3168                           ;PR25.c: 342: data=data%100000;
  3169  0214  3000               	movlw	0
  3170  0215  00F3               	movwf	(?___llmod+3)
  3171  0216  3001               	movlw	01h
  3172  0217  00F2               	movwf	(?___llmod+2)
  3173  0218  3086               	movlw	086h
  3174  0219  00F1               	movwf	(?___llmod+1)
  3175  021A  30A0               	movlw	0A0h
  3176  021B  00F0               	movwf	(?___llmod)
  3177                           
  3178  021C  0823               	movf	(send_dec@data+3),w
  3179  021D  00F7               	movwf	3+(?___llmod)+04h
  3180  021E  0822               	movf	(send_dec@data+2),w
  3181  021F  00F6               	movwf	2+(?___llmod)+04h
  3182  0220  0821               	movf	(send_dec@data+1),w
  3183  0221  00F5               	movwf	1+(?___llmod)+04h
  3184  0222  0820               	movf	(send_dec@data),w
  3185  0223  00F4               	movwf	0+(?___llmod)+04h
  3186                           
  3187  0224  120A  158A  2736   	fcall	___llmod
              120A  118A         
  3188  0229  0873               	movf	(3+(?___llmod)),w
  3189  022A  1283               	bcf	status, 5	;RP0=0, select bank0
  3190  022B  1303               	bcf	status, 6	;RP1=0, select bank0
  3191  022C  00A3               	movwf	(send_dec@data+3)
  3192  022D  0872               	movf	(2+(?___llmod)),w
  3193  022E  00A2               	movwf	(send_dec@data+2)
  3194  022F  0871               	movf	(1+(?___llmod)),w
  3195  0230  00A1               	movwf	(send_dec@data+1)
  3196  0231  0870               	movf	(0+(?___llmod)),w
  3197  0232  00A0               	movwf	(send_dec@data)
  3198                           
  3199                           	line	343
  3200                           	
  3201  0233                     l2726:	
  3202                           ;PR25.c: 343: send_char(data/10000+0x30);
  3203  0233  3000               	movlw	0
  3204  0234  00F3               	movwf	(?___lldiv+3)
  3205  0235  3000               	movlw	0
  3206  0236  00F2               	movwf	(?___lldiv+2)
  3207  0237  3027               	movlw	027h
  3208  0238  00F1               	movwf	(?___lldiv+1)
  3209  0239  3010               	movlw	010h
  3210  023A  00F0               	movwf	(?___lldiv)
  3211                           
  3212  023B  0823               	movf	(send_dec@data+3),w
  3213  023C  00F7               	movwf	3+(?___lldiv)+04h
  3214  023D  0822               	movf	(send_dec@data+2),w
  3215  023E  00F6               	movwf	2+(?___lldiv)+04h
  3216  023F  0821               	movf	(send_dec@data+1),w
  3217  0240  00F5               	movwf	1+(?___lldiv)+04h
  3218  0241  0820               	movf	(send_dec@data),w
  3219  0242  00F4               	movwf	0+(?___lldiv)+04h
  3220                           
  3221  0243  120A  158A  2792   	fcall	___lldiv
              120A  118A         
  3222  0248  0870               	movf	0+(((0+(?___lldiv)))),w
  3223  0249  3E30               	addlw	030h
  3224  024A  120A  158A  2629   	fcall	_send_char
              120A  118A         
  3225  024F  2A50               	goto	l2728
  3226                           	line	344
  3227                           	
  3228  0250                     l635:	
  3229                           	line	345
  3230                           	
  3231  0250                     l2728:	
  3232                           ;PR25.c: 344: }
  3233                           ;PR25.c: 345: if(num_dig>=4)
  3234  0250  3004               	movlw	(04h)
  3235  0251  1283               	bcf	status, 5	;RP0=0, select bank0
  3236  0252  1303               	bcf	status, 6	;RP1=0, select bank0
  3237  0253  0224               	subwf	(send_dec@num_dig),w
  3238  0254  1C03               	skipc
  3239  0255  2A57               	goto	u3131
  3240  0256  2A58               	goto	u3130
  3241  0257                     u3131:
  3242  0257  2A94               	goto	l2734
  3243  0258                     u3130:
  3244                           	line	347
  3245                           	
  3246  0258                     l2730:	
  3247                           ;PR25.c: 346: {
  3248                           ;PR25.c: 347: data=data%10000;
  3249  0258  3000               	movlw	0
  3250  0259  00F3               	movwf	(?___llmod+3)
  3251  025A  3000               	movlw	0
  3252  025B  00F2               	movwf	(?___llmod+2)
  3253  025C  3027               	movlw	027h
  3254  025D  00F1               	movwf	(?___llmod+1)
  3255  025E  3010               	movlw	010h
  3256  025F  00F0               	movwf	(?___llmod)
  3257                           
  3258  0260  0823               	movf	(send_dec@data+3),w
  3259  0261  00F7               	movwf	3+(?___llmod)+04h
  3260  0262  0822               	movf	(send_dec@data+2),w
  3261  0263  00F6               	movwf	2+(?___llmod)+04h
  3262  0264  0821               	movf	(send_dec@data+1),w
  3263  0265  00F5               	movwf	1+(?___llmod)+04h
  3264  0266  0820               	movf	(send_dec@data),w
  3265  0267  00F4               	movwf	0+(?___llmod)+04h
  3266                           
  3267  0268  120A  158A  2736   	fcall	___llmod
              120A  118A         
  3268  026D  0873               	movf	(3+(?___llmod)),w
  3269  026E  1283               	bcf	status, 5	;RP0=0, select bank0
  3270  026F  1303               	bcf	status, 6	;RP1=0, select bank0
  3271  0270  00A3               	movwf	(send_dec@data+3)
  3272  0271  0872               	movf	(2+(?___llmod)),w
  3273  0272  00A2               	movwf	(send_dec@data+2)
  3274  0273  0871               	movf	(1+(?___llmod)),w
  3275  0274  00A1               	movwf	(send_dec@data+1)
  3276  0275  0870               	movf	(0+(?___llmod)),w
  3277  0276  00A0               	movwf	(send_dec@data)
  3278                           
  3279                           	line	348
  3280                           	
  3281  0277                     l2732:	
  3282                           ;PR25.c: 348: send_char(data/1000+0x30);
  3283  0277  3000               	movlw	0
  3284  0278  00F3               	movwf	(?___lldiv+3)
  3285  0279  3000               	movlw	0
  3286  027A  00F2               	movwf	(?___lldiv+2)
  3287  027B  3003               	movlw	03h
  3288  027C  00F1               	movwf	(?___lldiv+1)
  3289  027D  30E8               	movlw	0E8h
  3290  027E  00F0               	movwf	(?___lldiv)
  3291                           
  3292  027F  0823               	movf	(send_dec@data+3),w
  3293  0280  00F7               	movwf	3+(?___lldiv)+04h
  3294  0281  0822               	movf	(send_dec@data+2),w
  3295  0282  00F6               	movwf	2+(?___lldiv)+04h
  3296  0283  0821               	movf	(send_dec@data+1),w
  3297  0284  00F5               	movwf	1+(?___lldiv)+04h
  3298  0285  0820               	movf	(send_dec@data),w
  3299  0286  00F4               	movwf	0+(?___lldiv)+04h
  3300                           
  3301  0287  120A  158A  2792   	fcall	___lldiv
              120A  118A         
  3302  028C  0870               	movf	0+(((0+(?___lldiv)))),w
  3303  028D  3E30               	addlw	030h
  3304  028E  120A  158A  2629   	fcall	_send_char
              120A  118A         
  3305  0293  2A94               	goto	l2734
  3306                           	line	349
  3307                           	
  3308  0294                     l636:	
  3309                           	line	350
  3310                           	
  3311  0294                     l2734:	
  3312                           ;PR25.c: 349: }
  3313                           ;PR25.c: 350: if(num_dig>=3)
  3314  0294  3003               	movlw	(03h)
  3315  0295  1283               	bcf	status, 5	;RP0=0, select bank0
  3316  0296  1303               	bcf	status, 6	;RP1=0, select bank0
  3317  0297  0224               	subwf	(send_dec@num_dig),w
  3318  0298  1C03               	skipc
  3319  0299  2A9B               	goto	u3141
  3320  029A  2A9C               	goto	u3140
  3321  029B                     u3141:
  3322  029B  2AD8               	goto	l2740
  3323  029C                     u3140:
  3324                           	line	352
  3325                           	
  3326  029C                     l2736:	
  3327                           ;PR25.c: 351: {
  3328                           ;PR25.c: 352: data=data%1000;
  3329  029C  3000               	movlw	0
  3330  029D  00F3               	movwf	(?___llmod+3)
  3331  029E  3000               	movlw	0
  3332  029F  00F2               	movwf	(?___llmod+2)
  3333  02A0  3003               	movlw	03h
  3334  02A1  00F1               	movwf	(?___llmod+1)
  3335  02A2  30E8               	movlw	0E8h
  3336  02A3  00F0               	movwf	(?___llmod)
  3337                           
  3338  02A4  0823               	movf	(send_dec@data+3),w
  3339  02A5  00F7               	movwf	3+(?___llmod)+04h
  3340  02A6  0822               	movf	(send_dec@data+2),w
  3341  02A7  00F6               	movwf	2+(?___llmod)+04h
  3342  02A8  0821               	movf	(send_dec@data+1),w
  3343  02A9  00F5               	movwf	1+(?___llmod)+04h
  3344  02AA  0820               	movf	(send_dec@data),w
  3345  02AB  00F4               	movwf	0+(?___llmod)+04h
  3346                           
  3347  02AC  120A  158A  2736   	fcall	___llmod
              120A  118A         
  3348  02B1  0873               	movf	(3+(?___llmod)),w
  3349  02B2  1283               	bcf	status, 5	;RP0=0, select bank0
  3350  02B3  1303               	bcf	status, 6	;RP1=0, select bank0
  3351  02B4  00A3               	movwf	(send_dec@data+3)
  3352  02B5  0872               	movf	(2+(?___llmod)),w
  3353  02B6  00A2               	movwf	(send_dec@data+2)
  3354  02B7  0871               	movf	(1+(?___llmod)),w
  3355  02B8  00A1               	movwf	(send_dec@data+1)
  3356  02B9  0870               	movf	(0+(?___llmod)),w
  3357  02BA  00A0               	movwf	(send_dec@data)
  3358                           
  3359                           	line	353
  3360                           	
  3361  02BB                     l2738:	
  3362                           ;PR25.c: 353: send_char(data/100+0x30);
  3363  02BB  3000               	movlw	0
  3364  02BC  00F3               	movwf	(?___lldiv+3)
  3365  02BD  3000               	movlw	0
  3366  02BE  00F2               	movwf	(?___lldiv+2)
  3367  02BF  3000               	movlw	0
  3368  02C0  00F1               	movwf	(?___lldiv+1)
  3369  02C1  3064               	movlw	064h
  3370  02C2  00F0               	movwf	(?___lldiv)
  3371                           
  3372  02C3  0823               	movf	(send_dec@data+3),w
  3373  02C4  00F7               	movwf	3+(?___lldiv)+04h
  3374  02C5  0822               	movf	(send_dec@data+2),w
  3375  02C6  00F6               	movwf	2+(?___lldiv)+04h
  3376  02C7  0821               	movf	(send_dec@data+1),w
  3377  02C8  00F5               	movwf	1+(?___lldiv)+04h
  3378  02C9  0820               	movf	(send_dec@data),w
  3379  02CA  00F4               	movwf	0+(?___lldiv)+04h
  3380                           
  3381  02CB  120A  158A  2792   	fcall	___lldiv
              120A  118A         
  3382  02D0  0870               	movf	0+(((0+(?___lldiv)))),w
  3383  02D1  3E30               	addlw	030h
  3384  02D2  120A  158A  2629   	fcall	_send_char
              120A  118A         
  3385  02D7  2AD8               	goto	l2740
  3386                           	line	354
  3387                           	
  3388  02D8                     l637:	
  3389                           	line	355
  3390                           	
  3391  02D8                     l2740:	
  3392                           ;PR25.c: 354: }
  3393                           ;PR25.c: 355: if(num_dig>=2)
  3394  02D8  3002               	movlw	(02h)
  3395  02D9  1283               	bcf	status, 5	;RP0=0, select bank0
  3396  02DA  1303               	bcf	status, 6	;RP1=0, select bank0
  3397  02DB  0224               	subwf	(send_dec@num_dig),w
  3398  02DC  1C03               	skipc
  3399  02DD  2ADF               	goto	u3151
  3400  02DE  2AE0               	goto	u3150
  3401  02DF                     u3151:
  3402  02DF  2B1C               	goto	l2746
  3403  02E0                     u3150:
  3404                           	line	357
  3405                           	
  3406  02E0                     l2742:	
  3407                           ;PR25.c: 356: {
  3408                           ;PR25.c: 357: data=data%100;
  3409  02E0  3000               	movlw	0
  3410  02E1  00F3               	movwf	(?___llmod+3)
  3411  02E2  3000               	movlw	0
  3412  02E3  00F2               	movwf	(?___llmod+2)
  3413  02E4  3000               	movlw	0
  3414  02E5  00F1               	movwf	(?___llmod+1)
  3415  02E6  3064               	movlw	064h
  3416  02E7  00F0               	movwf	(?___llmod)
  3417                           
  3418  02E8  0823               	movf	(send_dec@data+3),w
  3419  02E9  00F7               	movwf	3+(?___llmod)+04h
  3420  02EA  0822               	movf	(send_dec@data+2),w
  3421  02EB  00F6               	movwf	2+(?___llmod)+04h
  3422  02EC  0821               	movf	(send_dec@data+1),w
  3423  02ED  00F5               	movwf	1+(?___llmod)+04h
  3424  02EE  0820               	movf	(send_dec@data),w
  3425  02EF  00F4               	movwf	0+(?___llmod)+04h
  3426                           
  3427  02F0  120A  158A  2736   	fcall	___llmod
              120A  118A         
  3428  02F5  0873               	movf	(3+(?___llmod)),w
  3429  02F6  1283               	bcf	status, 5	;RP0=0, select bank0
  3430  02F7  1303               	bcf	status, 6	;RP1=0, select bank0
  3431  02F8  00A3               	movwf	(send_dec@data+3)
  3432  02F9  0872               	movf	(2+(?___llmod)),w
  3433  02FA  00A2               	movwf	(send_dec@data+2)
  3434  02FB  0871               	movf	(1+(?___llmod)),w
  3435  02FC  00A1               	movwf	(send_dec@data+1)
  3436  02FD  0870               	movf	(0+(?___llmod)),w
  3437  02FE  00A0               	movwf	(send_dec@data)
  3438                           
  3439                           	line	358
  3440                           	
  3441  02FF                     l2744:	
  3442                           ;PR25.c: 358: send_char(data/10+0x30);
  3443  02FF  3000               	movlw	0
  3444  0300  00F3               	movwf	(?___lldiv+3)
  3445  0301  3000               	movlw	0
  3446  0302  00F2               	movwf	(?___lldiv+2)
  3447  0303  3000               	movlw	0
  3448  0304  00F1               	movwf	(?___lldiv+1)
  3449  0305  300A               	movlw	0Ah
  3450  0306  00F0               	movwf	(?___lldiv)
  3451                           
  3452  0307  0823               	movf	(send_dec@data+3),w
  3453  0308  00F7               	movwf	3+(?___lldiv)+04h
  3454  0309  0822               	movf	(send_dec@data+2),w
  3455  030A  00F6               	movwf	2+(?___lldiv)+04h
  3456  030B  0821               	movf	(send_dec@data+1),w
  3457  030C  00F5               	movwf	1+(?___lldiv)+04h
  3458  030D  0820               	movf	(send_dec@data),w
  3459  030E  00F4               	movwf	0+(?___lldiv)+04h
  3460                           
  3461  030F  120A  158A  2792   	fcall	___lldiv
              120A  118A         
  3462  0314  0870               	movf	0+(((0+(?___lldiv)))),w
  3463  0315  3E30               	addlw	030h
  3464  0316  120A  158A  2629   	fcall	_send_char
              120A  118A         
  3465  031B  2B1C               	goto	l2746
  3466                           	line	359
  3467                           	
  3468  031C                     l638:	
  3469                           	line	360
  3470                           	
  3471  031C                     l2746:	
  3472                           ;PR25.c: 359: }
  3473                           ;PR25.c: 360: if(num_dig>=1)
  3474  031C  1283               	bcf	status, 5	;RP0=0, select bank0
  3475  031D  1303               	bcf	status, 6	;RP1=0, select bank0
  3476  031E  0824               	movf	(send_dec@num_dig),w
  3477  031F  1D03               	skipz
  3478  0320  2B22               	goto	u3160
  3479  0321  2B49               	goto	l640
  3480  0322                     u3160:
  3481                           	line	362
  3482                           	
  3483  0322                     l2748:	
  3484                           ;PR25.c: 361: {
  3485                           ;PR25.c: 362: data=data%10;
  3486  0322  3000               	movlw	0
  3487  0323  00F3               	movwf	(?___llmod+3)
  3488  0324  3000               	movlw	0
  3489  0325  00F2               	movwf	(?___llmod+2)
  3490  0326  3000               	movlw	0
  3491  0327  00F1               	movwf	(?___llmod+1)
  3492  0328  300A               	movlw	0Ah
  3493  0329  00F0               	movwf	(?___llmod)
  3494                           
  3495  032A  0823               	movf	(send_dec@data+3),w
  3496  032B  00F7               	movwf	3+(?___llmod)+04h
  3497  032C  0822               	movf	(send_dec@data+2),w
  3498  032D  00F6               	movwf	2+(?___llmod)+04h
  3499  032E  0821               	movf	(send_dec@data+1),w
  3500  032F  00F5               	movwf	1+(?___llmod)+04h
  3501  0330  0820               	movf	(send_dec@data),w
  3502  0331  00F4               	movwf	0+(?___llmod)+04h
  3503                           
  3504  0332  120A  158A  2736   	fcall	___llmod
              120A  118A         
  3505  0337  0873               	movf	(3+(?___llmod)),w
  3506  0338  1283               	bcf	status, 5	;RP0=0, select bank0
  3507  0339  1303               	bcf	status, 6	;RP1=0, select bank0
  3508  033A  00A3               	movwf	(send_dec@data+3)
  3509  033B  0872               	movf	(2+(?___llmod)),w
  3510  033C  00A2               	movwf	(send_dec@data+2)
  3511  033D  0871               	movf	(1+(?___llmod)),w
  3512  033E  00A1               	movwf	(send_dec@data+1)
  3513  033F  0870               	movf	(0+(?___llmod)),w
  3514  0340  00A0               	movwf	(send_dec@data)
  3515                           
  3516                           	line	363
  3517                           	
  3518  0341                     l2750:	
  3519                           ;PR25.c: 363: send_char(data+0x30);
  3520  0341  0820               	movf	(send_dec@data),w
  3521  0342  3E30               	addlw	030h
  3522  0343  120A  158A  2629   	fcall	_send_char
              120A  118A         
  3523  0348  2B49               	goto	l640
  3524                           	line	364
  3525                           	
  3526  0349                     l639:	
  3527                           	line	365
  3528                           	
  3529  0349                     l640:	
  3530  0349  0008               	return
  3531                           	opt stack 0
  3532                           GLOBAL	__end_of_send_dec
  3533  034A                     	__end_of_send_dec:
  3534 ;; =============== function _send_dec ends ============
  3535                           
  3536                           	signat	_send_dec,8312
  3537                           	global	_send_string
  3538                           psect	text252,local,class=CODE,delta=2
  3539                           global __ptext252
  3540  0E80                     __ptext252:
  3541                           
  3542 ;; *************** function _send_string *****************
  3543 ;; Defined at:
  3544 ;;		line 396 in file "C:\Users\Phang\Desktop\9.80\PR 25\PR25.c"
  3545 ;; Parameters:    Size  Location     Type
  3546 ;;  s               1    wreg     PTR const unsigned char 
  3547 ;;		 -> STR_14(16), STR_13(8), STR_12(15), STR_11(8), 
  3548 ;;		 -> STR_10(14), STR_9(15), STR_8(18), STR_7(8), 
  3549 ;;		 -> STR_6(16), STR_5(17), STR_4(14), STR_3(15), 
  3550 ;;		 -> STR_2(10), STR_1(11), 
  3551 ;; Auto vars:     Size  Location     Type
  3552 ;;  s               1    8[COMMON] PTR const unsigned char 
  3553 ;;		 -> STR_14(16), STR_13(8), STR_12(15), STR_11(8), 
  3554 ;;		 -> STR_10(14), STR_9(15), STR_8(18), STR_7(8), 
  3555 ;;		 -> STR_6(16), STR_5(17), STR_4(14), STR_3(15), 
  3556 ;;		 -> STR_2(10), STR_1(11), 
  3557 ;; Return value:  Size  Location     Type
  3558 ;;		None               void
  3559 ;; Registers used:
  3560 ;;		wreg, fsr0l, fsr0h, status,2, status,0, btemp+1, pclath, cstack
  3561 ;; Tracked objects:
  3562 ;;		On entry : 0/0
  3563 ;;		On exit  : 0/0
  3564 ;;		Unchanged: 0/0
  3565 ;; Data sizes:     COMMON   BANK0   BANK1   BANK3   BANK2
  3566 ;;      Params:         0       0       0       0       0
  3567 ;;      Locals:         1       0       0       0       0
  3568 ;;      Temps:          1       0       0       0       0
  3569 ;;      Totals:         2       0       0       0       0
  3570 ;;Total ram usage:        2 bytes
  3571 ;; Hardware stack levels used:    1
  3572 ;; Hardware stack levels required when called:    3
  3573 ;; This function calls:
  3574 ;;		_send_char
  3575 ;; This function is called by:
  3576 ;;		_main
  3577 ;; This function uses a non-reentrant model
  3578 ;;
  3579                           psect	text252
  3580                           	file	"C:\Users\Phang\Desktop\9.80\PR 25\PR25.c"
  3581                           	line	396
  3582                           	global	__size_of_send_string
  3583  0026                     	__size_of_send_string	equ	__end_of_send_string-_send_string
  3584                           	
  3585  0E80                     _send_string:	
  3586                           	opt	stack 4
  3587                           ; Regs used in _send_string: [wreg-fsr0h+status,2+status,0+btemp+1+pclath+cstack]
  3588                           ;send_string@s stored from wreg
  3589  0E80  00F8               	movwf	(send_string@s)
  3590                           	line	397
  3591                           	
  3592  0E81                     l2682:	
  3593                           ;PR25.c: 397: while (s && *s)send_char (*s++);
  3594  0E81  2E93               	goto	l2688
  3595                           	
  3596  0E82                     l655:	
  3597                           	
  3598  0E82                     l2684:	
  3599  0E82  0878               	movf	(send_string@s),w
  3600  0E83  0084               	movwf	fsr0
  3601  0E84  120A  118A  2003   	fcall	stringdir
              120A  158A         
  3602  0E89  120A  158A  2629   	fcall	_send_char
              120A  158A         
  3603                           	
  3604  0E8E                     l2686:	
  3605  0E8E  3001               	movlw	(01h)
  3606  0E8F  00F7               	movwf	(??_send_string+0)+0
  3607  0E90  0877               	movf	(??_send_string+0)+0,w
  3608  0E91  07F8               	addwf	(send_string@s),f
  3609  0E92  2E93               	goto	l2688
  3610                           	
  3611  0E93                     l654:	
  3612                           	
  3613  0E93                     l2688:	
  3614  0E93  0878               	movf	(send_string@s),w
  3615  0E94  1D03               	skipz
  3616  0E95  2E97               	goto	u3050
  3617  0E96  2EA5               	goto	l659
  3618  0E97                     u3050:
  3619                           	
  3620  0E97                     l2690:	
  3621  0E97  0878               	movf	(send_string@s),w
  3622  0E98  0084               	movwf	fsr0
  3623  0E99  120A  118A  2003   	fcall	stringdir
              120A  158A         
  3624  0E9E  3800               	iorlw	0
  3625  0E9F  1D03               	skipz
  3626  0EA0  2EA2               	goto	u3061
  3627  0EA1  2EA3               	goto	u3060
  3628  0EA2                     u3061:
  3629  0EA2  2E82               	goto	l2684
  3630  0EA3                     u3060:
  3631  0EA3  2EA5               	goto	l659
  3632                           	
  3633  0EA4                     l657:	
  3634  0EA4  2EA5               	goto	l659
  3635                           	
  3636  0EA5                     l658:	
  3637                           	line	398
  3638                           	
  3639  0EA5                     l659:	
  3640  0EA5  0008               	return
  3641                           	opt stack 0
  3642                           GLOBAL	__end_of_send_string
  3643  0EA6                     	__end_of_send_string:
  3644 ;; =============== function _send_string ends ============
  3645                           
  3646                           	signat	_send_string,4216
  3647                           	global	_lcd_goto
  3648                           psect	text253,local,class=CODE,delta=2
  3649                           global __ptext253
  3650  0E42                     __ptext253:
  3651                           
  3652 ;; *************** function _lcd_goto *****************
  3653 ;; Defined at:
  3654 ;;		line 376 in file "C:\Users\Phang\Desktop\9.80\PR 25\PR25.c"
  3655 ;; Parameters:    Size  Location     Type
  3656 ;;  data            1    wreg     unsigned char 
  3657 ;; Auto vars:     Size  Location     Type
  3658 ;;  data            1    8[COMMON] unsigned char 
  3659 ;; Return value:  Size  Location     Type
  3660 ;;		None               void
  3661 ;; Registers used:
  3662 ;;		wreg, status,2, status,0, btemp+1, pclath, cstack
  3663 ;; Tracked objects:
  3664 ;;		On entry : 0/0
  3665 ;;		On exit  : 0/0
  3666 ;;		Unchanged: 0/0
  3667 ;; Data sizes:     COMMON   BANK0   BANK1   BANK3   BANK2
  3668 ;;      Params:         0       0       0       0       0
  3669 ;;      Locals:         1       0       0       0       0
  3670 ;;      Temps:          1       0       0       0       0
  3671 ;;      Totals:         2       0       0       0       0
  3672 ;;Total ram usage:        2 bytes
  3673 ;; Hardware stack levels used:    1
  3674 ;; Hardware stack levels required when called:    3
  3675 ;; This function calls:
  3676 ;;		_send_config
  3677 ;; This function is called by:
  3678 ;;		_main
  3679 ;; This function uses a non-reentrant model
  3680 ;;
  3681                           psect	text253
  3682                           	file	"C:\Users\Phang\Desktop\9.80\PR 25\PR25.c"
  3683                           	line	376
  3684                           	global	__size_of_lcd_goto
  3685  001D                     	__size_of_lcd_goto	equ	__end_of_lcd_goto-_lcd_goto
  3686                           	
  3687  0E42                     _lcd_goto:	
  3688                           	opt	stack 4
  3689                           ; Regs used in _lcd_goto: [wreg+status,2+status,0+btemp+1+pclath+cstack]
  3690                           ;lcd_goto@data stored from wreg
  3691  0E42  00F8               	movwf	(lcd_goto@data)
  3692                           	line	377
  3693                           	
  3694  0E43                     l2674:	
  3695                           ;PR25.c: 377: if(data<16)
  3696  0E43  3010               	movlw	(010h)
  3697  0E44  0278               	subwf	(lcd_goto@data),w
  3698  0E45  1803               	skipnc
  3699  0E46  2E48               	goto	u3041
  3700  0E47  2E49               	goto	u3040
  3701  0E48                     u3041:
  3702  0E48  2E51               	goto	l2678
  3703  0E49                     u3040:
  3704                           	line	379
  3705                           	
  3706  0E49                     l2676:	
  3707                           ;PR25.c: 378: {
  3708                           ;PR25.c: 379: send_config(0x80+data);
  3709  0E49  0878               	movf	(lcd_goto@data),w
  3710  0E4A  3E80               	addlw	080h
  3711  0E4B  120A  158A  2610   	fcall	_send_config
              120A  158A         
  3712                           	line	380
  3713                           ;PR25.c: 380: }
  3714  0E50  2E5E               	goto	l648
  3715                           	line	381
  3716                           	
  3717  0E51                     l646:	
  3718                           	line	383
  3719                           	
  3720  0E51                     l2678:	
  3721                           ;PR25.c: 381: else
  3722                           ;PR25.c: 382: {
  3723                           ;PR25.c: 383: data=data-20;
  3724  0E51  0878               	movf	(lcd_goto@data),w
  3725  0E52  3EEC               	addlw	0ECh
  3726  0E53  00F7               	movwf	(??_lcd_goto+0)+0
  3727  0E54  0877               	movf	(??_lcd_goto+0)+0,w
  3728  0E55  00F8               	movwf	(lcd_goto@data)
  3729                           	line	384
  3730                           	
  3731  0E56                     l2680:	
  3732                           ;PR25.c: 384: send_config(0xc0+data);
  3733  0E56  0878               	movf	(lcd_goto@data),w
  3734  0E57  3EC0               	addlw	0C0h
  3735  0E58  120A  158A  2610   	fcall	_send_config
              120A  158A         
  3736  0E5D  2E5E               	goto	l648
  3737                           	line	385
  3738                           	
  3739  0E5E                     l647:	
  3740                           	line	386
  3741                           	
  3742  0E5E                     l648:	
  3743  0E5E  0008               	return
  3744                           	opt stack 0
  3745                           GLOBAL	__end_of_lcd_goto
  3746  0E5F                     	__end_of_lcd_goto:
  3747 ;; =============== function _lcd_goto ends ============
  3748                           
  3749                           	signat	_lcd_goto,4216
  3750                           	global	_lcd_clr
  3751                           psect	text254,local,class=CODE,delta=2
  3752                           global __ptext254
  3753  00A4                     __ptext254:
  3754                           
  3755 ;; *************** function _lcd_clr *****************
  3756 ;; Defined at:
  3757 ;;		line 390 in file "C:\Users\Phang\Desktop\9.80\PR 25\PR25.c"
  3758 ;; Parameters:    Size  Location     Type
  3759 ;;		None
  3760 ;; Auto vars:     Size  Location     Type
  3761 ;;		None
  3762 ;; Return value:  Size  Location     Type
  3763 ;;		None               void
  3764 ;; Registers used:
  3765 ;;		wreg, status,2, status,0, btemp+1, pclath, cstack
  3766 ;; Tracked objects:
  3767 ;;		On entry : 0/0
  3768 ;;		On exit  : 0/0
  3769 ;;		Unchanged: 0/0
  3770 ;; Data sizes:     COMMON   BANK0   BANK1   BANK3   BANK2
  3771 ;;      Params:         0       0       0       0       0
  3772 ;;      Locals:         0       0       0       0       0
  3773 ;;      Temps:          0       0       0       0       0
  3774 ;;      Totals:         0       0       0       0       0
  3775 ;;Total ram usage:        0 bytes
  3776 ;; Hardware stack levels used:    1
  3777 ;; Hardware stack levels required when called:    3
  3778 ;; This function calls:
  3779 ;;		_send_config
  3780 ;;		_delay
  3781 ;; This function is called by:
  3782 ;;		_main
  3783 ;; This function uses a non-reentrant model
  3784 ;;
  3785                           psect	text254
  3786                           	file	"C:\Users\Phang\Desktop\9.80\PR 25\PR25.c"
  3787                           	line	390
  3788                           	global	__size_of_lcd_clr
  3789  0014                     	__size_of_lcd_clr	equ	__end_of_lcd_clr-_lcd_clr
  3790                           	
  3791  00A4                     _lcd_clr:	
  3792                           	opt	stack 4
  3793                           ; Regs used in _lcd_clr: [wreg+status,2+status,0+btemp+1+pclath+cstack]
  3794                           	line	391
  3795                           	
  3796  00A4                     l2672:	
  3797                           ;PR25.c: 391: send_config(0x01);
  3798  00A4  3001               	movlw	(01h)
  3799  00A5  120A  158A  2610   	fcall	_send_config
              120A  118A         
  3800                           	line	392
  3801                           ;PR25.c: 392: delay(350);
  3802  00AA  3000               	movlw	0
  3803  00AB  00F3               	movwf	(?_delay+3)
  3804  00AC  3000               	movlw	0
  3805  00AD  00F2               	movwf	(?_delay+2)
  3806  00AE  3001               	movlw	01h
  3807  00AF  00F1               	movwf	(?_delay+1)
  3808  00B0  305E               	movlw	05Eh
  3809  00B1  00F0               	movwf	(?_delay)
  3810                           
  3811  00B2  120A  158A  26A6   	fcall	_delay
              120A  118A         
  3812                           	line	393
  3813                           	
  3814  00B7                     l651:	
  3815  00B7  0008               	return
  3816                           	opt stack 0
  3817                           GLOBAL	__end_of_lcd_clr
  3818  00B8                     	__end_of_lcd_clr:
  3819 ;; =============== function _lcd_clr ends ============
  3820                           
  3821                           	signat	_lcd_clr,88
  3822                           	global	_init
  3823                           psect	text255,local,class=CODE,delta=2
  3824                           global __ptext255
  3825  0EFA                     __ptext255:
  3826                           
  3827 ;; *************** function _init *****************
  3828 ;; Defined at:
  3829 ;;		line 267 in file "C:\Users\Phang\Desktop\9.80\PR 25\PR25.c"
  3830 ;; Parameters:    Size  Location     Type
  3831 ;;		None
  3832 ;; Auto vars:     Size  Location     Type
  3833 ;;		None
  3834 ;; Return value:  Size  Location     Type
  3835 ;;		None               void
  3836 ;; Registers used:
  3837 ;;		wreg, status,2, status,0, btemp+1, pclath, cstack
  3838 ;; Tracked objects:
  3839 ;;		On entry : 0/0
  3840 ;;		On exit  : 0/0
  3841 ;;		Unchanged: 0/0
  3842 ;; Data sizes:     COMMON   BANK0   BANK1   BANK3   BANK2
  3843 ;;      Params:         0       0       0       0       0
  3844 ;;      Locals:         0       0       0       0       0
  3845 ;;      Temps:          0       0       0       0       0
  3846 ;;      Totals:         0       0       0       0       0
  3847 ;;Total ram usage:        0 bytes
  3848 ;; Hardware stack levels used:    1
  3849 ;; Hardware stack levels required when called:    3
  3850 ;; This function calls:
  3851 ;;		_send_config
  3852 ;;		_delay
  3853 ;; This function is called by:
  3854 ;;		_main
  3855 ;; This function uses a non-reentrant model
  3856 ;;
  3857                           psect	text255
  3858                           	file	"C:\Users\Phang\Desktop\9.80\PR 25\PR25.c"
  3859                           	line	267
  3860                           	global	__size_of_init
  3861  003C                     	__size_of_init	equ	__end_of_init-_init
  3862                           	
  3863  0EFA                     _init:	
  3864                           	opt	stack 4
  3865                           ; Regs used in _init: [wreg+status,2+status,0+btemp+1+pclath+cstack]
  3866                           	line	269
  3867                           	
  3868  0EFA                     l2648:	
  3869                           ;PR25.c: 269: ADCON1 = 0X06;
  3870  0EFA  3006               	movlw	(06h)
  3871  0EFB  1683               	bsf	status, 5	;RP0=1, select bank1
  3872  0EFC  1303               	bcf	status, 6	;RP1=0, select bank1
  3873  0EFD  009F               	movwf	(159)^080h	;volatile
  3874                           	line	272
  3875                           ;PR25.c: 272: TRISA = 0b00111100;
  3876  0EFE  303C               	movlw	(03Ch)
  3877  0EFF  0085               	movwf	(133)^080h	;volatile
  3878                           	line	273
  3879                           	
  3880  0F00                     l2650:	
  3881                           ;PR25.c: 273: TRISB = 0b00000000;
  3882  0F00  0186               	clrf	(134)^080h	;volatile
  3883                           	line	274
  3884                           	
  3885  0F01                     l2652:	
  3886                           ;PR25.c: 274: TRISC = 0b00000111;
  3887  0F01  3007               	movlw	(07h)
  3888  0F02  0087               	movwf	(135)^080h	;volatile
  3889                           	line	277
  3890                           	
  3891  0F03                     l2654:	
  3892                           ;PR25.c: 277: send_config(0b00000001);
  3893  0F03  3001               	movlw	(01h)
  3894  0F04  120A  158A  2610   	fcall	_send_config
              120A  158A         
  3895                           	line	278
  3896                           	
  3897  0F09                     l2656:	
  3898                           ;PR25.c: 278: send_config(0b00000010);
  3899  0F09  3002               	movlw	(02h)
  3900  0F0A  120A  158A  2610   	fcall	_send_config
              120A  158A         
  3901                           	line	279
  3902                           	
  3903  0F0F                     l2658:	
  3904                           ;PR25.c: 279: send_config(0b00000110);
  3905  0F0F  3006               	movlw	(06h)
  3906  0F10  120A  158A  2610   	fcall	_send_config
              120A  158A         
  3907                           	line	280
  3908                           	
  3909  0F15                     l2660:	
  3910                           ;PR25.c: 280: send_config(0b00001100);
  3911  0F15  300C               	movlw	(0Ch)
  3912  0F16  120A  158A  2610   	fcall	_send_config
              120A  158A         
  3913                           	line	281
  3914                           	
  3915  0F1B                     l2662:	
  3916                           ;PR25.c: 281: send_config(0b00111000);
  3917  0F1B  3038               	movlw	(038h)
  3918  0F1C  120A  158A  2610   	fcall	_send_config
              120A  158A         
  3919                           	line	283
  3920                           	
  3921  0F21                     l2664:	
  3922                           ;PR25.c: 283: RC4=0;
  3923  0F21  1283               	bcf	status, 5	;RP0=0, select bank0
  3924  0F22  1303               	bcf	status, 6	;RP1=0, select bank0
  3925  0F23  1207               	bcf	(60/8),(60)&7
  3926                           	line	284
  3927                           	
  3928  0F24                     l2666:	
  3929                           ;PR25.c: 284: delay(5000);
  3930  0F24  3000               	movlw	0
  3931  0F25  00F3               	movwf	(?_delay+3)
  3932  0F26  3000               	movlw	0
  3933  0F27  00F2               	movwf	(?_delay+2)
  3934  0F28  3013               	movlw	013h
  3935  0F29  00F1               	movwf	(?_delay+1)
  3936  0F2A  3088               	movlw	088h
  3937  0F2B  00F0               	movwf	(?_delay)
  3938                           
  3939  0F2C  120A  158A  26A6   	fcall	_delay
              120A  158A         
  3940                           	line	285
  3941                           	
  3942  0F31                     l2668:	
  3943                           ;PR25.c: 285: RC3=0;
  3944  0F31  1283               	bcf	status, 5	;RP0=0, select bank0
  3945  0F32  1303               	bcf	status, 6	;RP1=0, select bank0
  3946  0F33  1187               	bcf	(59/8),(59)&7
  3947                           	line	286
  3948                           	
  3949  0F34                     l2670:	
  3950                           ;PR25.c: 286: RA1=0;
  3951  0F34  1085               	bcf	(41/8),(41)&7
  3952                           	line	287
  3953                           	
  3954  0F35                     l616:	
  3955  0F35  0008               	return
  3956                           	opt stack 0
  3957                           GLOBAL	__end_of_init
  3958  0F36                     	__end_of_init:
  3959 ;; =============== function _init ends ============
  3960                           
  3961                           	signat	_init,88
  3962                           	global	_send_char
  3963                           psect	text256,local,class=CODE,delta=2
  3964                           global __ptext256
  3965  0E29                     __ptext256:
  3966                           
  3967 ;; *************** function _send_char *****************
  3968 ;; Defined at:
  3969 ;;		line 306 in file "C:\Users\Phang\Desktop\9.80\PR 25\PR25.c"
  3970 ;; Parameters:    Size  Location     Type
  3971 ;;  data            1    wreg     unsigned char 
  3972 ;; Auto vars:     Size  Location     Type
  3973 ;;  data            1    6[COMMON] unsigned char 
  3974 ;; Return value:  Size  Location     Type
  3975 ;;		None               void
  3976 ;; Registers used:
  3977 ;;		wreg, status,2, status,0, btemp+1, pclath, cstack
  3978 ;; Tracked objects:
  3979 ;;		On entry : 0/0
  3980 ;;		On exit  : 0/0
  3981 ;;		Unchanged: 0/0
  3982 ;; Data sizes:     COMMON   BANK0   BANK1   BANK3   BANK2
  3983 ;;      Params:         0       0       0       0       0
  3984 ;;      Locals:         1       0       0       0       0
  3985 ;;      Temps:          0       0       0       0       0
  3986 ;;      Totals:         1       0       0       0       0
  3987 ;;Total ram usage:        1 bytes
  3988 ;; Hardware stack levels used:    1
  3989 ;; Hardware stack levels required when called:    2
  3990 ;; This function calls:
  3991 ;;		_delay
  3992 ;;		_e_pulse
  3993 ;; This function is called by:
  3994 ;;		_send_dec
  3995 ;;		_send_string
  3996 ;; This function uses a non-reentrant model
  3997 ;;
  3998                           psect	text256
  3999                           	file	"C:\Users\Phang\Desktop\9.80\PR 25\PR25.c"
  4000                           	line	306
  4001                           	global	__size_of_send_char
  4002  0019                     	__size_of_send_char	equ	__end_of_send_char-_send_char
  4003                           	
  4004  0E29                     _send_char:	
  4005                           	opt	stack 4
  4006                           ; Regs used in _send_char: [wreg+status,2+status,0+btemp+1+pclath+cstack]
  4007                           ;send_char@data stored from wreg
  4008  0E29  00F6               	movwf	(send_char@data)
  4009                           	line	307
  4010                           	
  4011  0E2A                     l2640:	
  4012                           ;PR25.c: 307: RA0=1;
  4013  0E2A  1283               	bcf	status, 5	;RP0=0, select bank0
  4014  0E2B  1303               	bcf	status, 6	;RP1=0, select bank0
  4015  0E2C  1405               	bsf	(40/8),(40)&7
  4016                           	line	308
  4017                           	
  4018  0E2D                     l2642:	
  4019                           ;PR25.c: 308: PORTB = data;
  4020  0E2D  0876               	movf	(send_char@data),w
  4021  0E2E  0086               	movwf	(6)	;volatile
  4022                           	line	309
  4023                           	
  4024  0E2F                     l2644:	
  4025                           ;PR25.c: 309: delay(400);
  4026  0E2F  3000               	movlw	0
  4027  0E30  00F3               	movwf	(?_delay+3)
  4028  0E31  3000               	movlw	0
  4029  0E32  00F2               	movwf	(?_delay+2)
  4030  0E33  3001               	movlw	01h
  4031  0E34  00F1               	movwf	(?_delay+1)
  4032  0E35  3090               	movlw	090h
  4033  0E36  00F0               	movwf	(?_delay)
  4034                           
  4035  0E37  120A  158A  26A6   	fcall	_delay
              120A  158A         
  4036                           	line	310
  4037                           	
  4038  0E3C                     l2646:	
  4039                           ;PR25.c: 310: e_pulse();
  4040  0E3C  120A  158A  265F   	fcall	_e_pulse
              120A  158A         
  4041                           	line	311
  4042                           	
  4043  0E41                     l627:	
  4044  0E41  0008               	return
  4045                           	opt stack 0
  4046                           GLOBAL	__end_of_send_char
  4047  0E42                     	__end_of_send_char:
  4048 ;; =============== function _send_char ends ============
  4049                           
  4050                           	signat	_send_char,4216
  4051                           	global	_send_config
  4052                           psect	text257,local,class=CODE,delta=2
  4053                           global __ptext257
  4054  0E10                     __ptext257:
  4055                           
  4056 ;; *************** function _send_config *****************
  4057 ;; Defined at:
  4058 ;;		line 298 in file "C:\Users\Phang\Desktop\9.80\PR 25\PR25.c"
  4059 ;; Parameters:    Size  Location     Type
  4060 ;;  data            1    wreg     unsigned char 
  4061 ;; Auto vars:     Size  Location     Type
  4062 ;;  data            1    6[COMMON] unsigned char 
  4063 ;; Return value:  Size  Location     Type
  4064 ;;		None               void
  4065 ;; Registers used:
  4066 ;;		wreg, status,2, status,0, btemp+1, pclath, cstack
  4067 ;; Tracked objects:
  4068 ;;		On entry : 0/0
  4069 ;;		On exit  : 0/0
  4070 ;;		Unchanged: 0/0
  4071 ;; Data sizes:     COMMON   BANK0   BANK1   BANK3   BANK2
  4072 ;;      Params:         0       0       0       0       0
  4073 ;;      Locals:         1       0       0       0       0
  4074 ;;      Temps:          0       0       0       0       0
  4075 ;;      Totals:         1       0       0       0       0
  4076 ;;Total ram usage:        1 bytes
  4077 ;; Hardware stack levels used:    1
  4078 ;; Hardware stack levels required when called:    2
  4079 ;; This function calls:
  4080 ;;		_delay
  4081 ;;		_e_pulse
  4082 ;; This function is called by:
  4083 ;;		_init
  4084 ;;		_lcd_goto
  4085 ;;		_lcd_clr
  4086 ;; This function uses a non-reentrant model
  4087 ;;
  4088                           psect	text257
  4089                           	file	"C:\Users\Phang\Desktop\9.80\PR 25\PR25.c"
  4090                           	line	298
  4091                           	global	__size_of_send_config
  4092  0019                     	__size_of_send_config	equ	__end_of_send_config-_send_config
  4093                           	
  4094  0E10                     _send_config:	
  4095                           	opt	stack 4
  4096                           ; Regs used in _send_config: [wreg+status,2+status,0+btemp+1+pclath+cstack]
  4097                           ;send_config@data stored from wreg
  4098  0E10  00F6               	movwf	(send_config@data)
  4099                           	line	299
  4100                           	
  4101  0E11                     l2632:	
  4102                           ;PR25.c: 299: RA0=0;
  4103  0E11  1283               	bcf	status, 5	;RP0=0, select bank0
  4104  0E12  1303               	bcf	status, 6	;RP1=0, select bank0
  4105  0E13  1005               	bcf	(40/8),(40)&7
  4106                           	line	300
  4107                           	
  4108  0E14                     l2634:	
  4109                           ;PR25.c: 300: PORTB=data;
  4110  0E14  0876               	movf	(send_config@data),w
  4111  0E15  0086               	movwf	(6)	;volatile
  4112                           	line	301
  4113                           	
  4114  0E16                     l2636:	
  4115                           ;PR25.c: 301: delay(400);
  4116  0E16  3000               	movlw	0
  4117  0E17  00F3               	movwf	(?_delay+3)
  4118  0E18  3000               	movlw	0
  4119  0E19  00F2               	movwf	(?_delay+2)
  4120  0E1A  3001               	movlw	01h
  4121  0E1B  00F1               	movwf	(?_delay+1)
  4122  0E1C  3090               	movlw	090h
  4123  0E1D  00F0               	movwf	(?_delay)
  4124                           
  4125  0E1E  120A  158A  26A6   	fcall	_delay
              120A  158A         
  4126                           	line	302
  4127                           	
  4128  0E23                     l2638:	
  4129                           ;PR25.c: 302: e_pulse();
  4130  0E23  120A  158A  265F   	fcall	_e_pulse
              120A  158A         
  4131                           	line	303
  4132                           	
  4133  0E28                     l624:	
  4134  0E28  0008               	return
  4135                           	opt stack 0
  4136                           GLOBAL	__end_of_send_config
  4137  0E29                     	__end_of_send_config:
  4138 ;; =============== function _send_config ends ============
  4139                           
  4140                           	signat	_send_config,4216
  4141                           	global	_e_pulse
  4142                           psect	text258,local,class=CODE,delta=2
  4143                           global __ptext258
  4144  0E5F                     __ptext258:
  4145                           
  4146 ;; *************** function _e_pulse *****************
  4147 ;; Defined at:
  4148 ;;		line 368 in file "C:\Users\Phang\Desktop\9.80\PR 25\PR25.c"
  4149 ;; Parameters:    Size  Location     Type
  4150 ;;		None
  4151 ;; Auto vars:     Size  Location     Type
  4152 ;;		None
  4153 ;; Return value:  Size  Location     Type
  4154 ;;		None               void
  4155 ;; Registers used:
  4156 ;;		wreg, status,2, status,0, btemp+1, pclath, cstack
  4157 ;; Tracked objects:
  4158 ;;		On entry : 0/0
  4159 ;;		On exit  : 0/0
  4160 ;;		Unchanged: 0/0
  4161 ;; Data sizes:     COMMON   BANK0   BANK1   BANK3   BANK2
  4162 ;;      Params:         0       0       0       0       0
  4163 ;;      Locals:         0       0       0       0       0
  4164 ;;      Temps:          0       0       0       0       0
  4165 ;;      Totals:         0       0       0       0       0
  4166 ;;Total ram usage:        0 bytes
  4167 ;; Hardware stack levels used:    1
  4168 ;; Hardware stack levels required when called:    1
  4169 ;; This function calls:
  4170 ;;		_delay
  4171 ;; This function is called by:
  4172 ;;		_send_config
  4173 ;;		_send_char
  4174 ;; This function uses a non-reentrant model
  4175 ;;
  4176                           psect	text258
  4177                           	file	"C:\Users\Phang\Desktop\9.80\PR 25\PR25.c"
  4178                           	line	368
  4179                           	global	__size_of_e_pulse
  4180  0021                     	__size_of_e_pulse	equ	__end_of_e_pulse-_e_pulse
  4181                           	
  4182  0E5F                     _e_pulse:	
  4183                           	opt	stack 4
  4184                           ; Regs used in _e_pulse: [wreg+status,2+status,0+btemp+1+pclath+cstack]
  4185                           	line	369
  4186                           	
  4187  0E5F                     l2626:	
  4188                           ;PR25.c: 369: RC5=1;
  4189  0E5F  1283               	bcf	status, 5	;RP0=0, select bank0
  4190  0E60  1303               	bcf	status, 6	;RP1=0, select bank0
  4191  0E61  1687               	bsf	(61/8),(61)&7
  4192                           	line	370
  4193                           	
  4194  0E62                     l2628:	
  4195                           ;PR25.c: 370: delay(300);
  4196  0E62  3000               	movlw	0
  4197  0E63  00F3               	movwf	(?_delay+3)
  4198  0E64  3000               	movlw	0
  4199  0E65  00F2               	movwf	(?_delay+2)
  4200  0E66  3001               	movlw	01h
  4201  0E67  00F1               	movwf	(?_delay+1)
  4202  0E68  302C               	movlw	02Ch
  4203  0E69  00F0               	movwf	(?_delay)
  4204                           
  4205  0E6A  120A  158A  26A6   	fcall	_delay
              120A  158A         
  4206                           	line	371
  4207                           	
  4208  0E6F                     l2630:	
  4209                           ;PR25.c: 371: RC5=0;
  4210  0E6F  1283               	bcf	status, 5	;RP0=0, select bank0
  4211  0E70  1303               	bcf	status, 6	;RP1=0, select bank0
  4212  0E71  1287               	bcf	(61/8),(61)&7
  4213                           	line	372
  4214                           ;PR25.c: 372: delay(300);
  4215  0E72  3000               	movlw	0
  4216  0E73  00F3               	movwf	(?_delay+3)
  4217  0E74  3000               	movlw	0
  4218  0E75  00F2               	movwf	(?_delay+2)
  4219  0E76  3001               	movlw	01h
  4220  0E77  00F1               	movwf	(?_delay+1)
  4221  0E78  302C               	movlw	02Ch
  4222  0E79  00F0               	movwf	(?_delay)
  4223                           
  4224  0E7A  120A  158A  26A6   	fcall	_delay
              120A  158A         
  4225                           	line	373
  4226                           	
  4227  0E7F                     l643:	
  4228  0E7F  0008               	return
  4229                           	opt stack 0
  4230                           GLOBAL	__end_of_e_pulse
  4231  0E80                     	__end_of_e_pulse:
  4232 ;; =============== function _e_pulse ends ============
  4233                           
  4234                           	signat	_e_pulse,88
  4235                           	global	___lldiv
  4236                           psect	text259,local,class=CODE,delta=2
  4237                           global __ptext259
  4238  0F92                     __ptext259:
  4239                           
  4240 ;; *************** function ___lldiv *****************
  4241 ;; Defined at:
  4242 ;;		line 5 in file "C:\Program Files\HI-TECH Software\sources\lldiv.c"
  4243 ;; Parameters:    Size  Location     Type
  4244 ;;  divisor         4    0[COMMON] unsigned long 
  4245 ;;  dividend        4    4[COMMON] unsigned long 
  4246 ;; Auto vars:     Size  Location     Type
  4247 ;;  quotient        4    9[COMMON] unsigned long 
  4248 ;;  counter         1   13[COMMON] unsigned char 
  4249 ;; Return value:  Size  Location     Type
  4250 ;;                  4    0[COMMON] unsigned long 
  4251 ;; Registers used:
  4252 ;;		wreg, status,2, status,0
  4253 ;; Tracked objects:
  4254 ;;		On entry : 0/0
  4255 ;;		On exit  : 0/0
  4256 ;;		Unchanged: 0/0
  4257 ;; Data sizes:     COMMON   BANK0   BANK1   BANK3   BANK2
  4258 ;;      Params:         8       0       0       0       0
  4259 ;;      Locals:         5       0       0       0       0
  4260 ;;      Temps:          1       0       0       0       0
  4261 ;;      Totals:        14       0       0       0       0
  4262 ;;Total ram usage:       14 bytes
  4263 ;; Hardware stack levels used:    1
  4264 ;; This function calls:
  4265 ;;		Nothing
  4266 ;; This function is called by:
  4267 ;;		_send_dec
  4268 ;; This function uses a non-reentrant model
  4269 ;;
  4270                           psect	text259
  4271                           	file	"C:\Program Files\HI-TECH Software\sources\lldiv.c"
  4272                           	line	5
  4273                           	global	__size_of___lldiv
  4274  006E                     	__size_of___lldiv	equ	__end_of___lldiv-___lldiv
  4275                           	
  4276  0F92                     ___lldiv:	
  4277                           	opt	stack 6
  4278                           ; Regs used in ___lldiv: [wreg+status,2+status,0]
  4279                           	line	9
  4280                           	
  4281  0F92                     l2602:	
  4282  0F92  3000               	movlw	0
  4283  0F93  00FC               	movwf	(___lldiv@quotient+3)
  4284  0F94  3000               	movlw	0
  4285  0F95  00FB               	movwf	(___lldiv@quotient+2)
  4286  0F96  3000               	movlw	0
  4287  0F97  00FA               	movwf	(___lldiv@quotient+1)
  4288  0F98  3000               	movlw	0
  4289  0F99  00F9               	movwf	(___lldiv@quotient)
  4290                           
  4291                           	line	10
  4292  0F9A  0873               	movf	(___lldiv@divisor+3),w
  4293  0F9B  0472               	iorwf	(___lldiv@divisor+2),w
  4294  0F9C  0471               	iorwf	(___lldiv@divisor+1),w
  4295  0F9D  0470               	iorwf	(___lldiv@divisor),w
  4296  0F9E  1903               	skipnz
  4297  0F9F  2FA1               	goto	u2971
  4298  0FA0  2FA2               	goto	u2970
  4299  0FA1                     u2971:
  4300  0FA1  2FF6               	goto	l2622
  4301  0FA2                     u2970:
  4302                           	line	11
  4303                           	
  4304  0FA2                     l2604:	
  4305  0FA2  01FD               	clrf	(___lldiv@counter)
  4306  0FA3  1403               	bsf	status,0
  4307  0FA4  0DFD               	rlf	(___lldiv@counter),f
  4308                           	line	12
  4309  0FA5  2FB4               	goto	l2608
  4310                           	
  4311  0FA6                     l842:	
  4312                           	line	13
  4313                           	
  4314  0FA6                     l2606:	
  4315  0FA6  3001               	movlw	01h
  4316  0FA7  00F8               	movwf	(??___lldiv+0)+0
  4317  0FA8                     u2985:
  4318  0FA8  1003               	clrc
  4319  0FA9  0DF0               	rlf	(___lldiv@divisor),f
  4320  0FAA  0DF1               	rlf	(___lldiv@divisor+1),f
  4321  0FAB  0DF2               	rlf	(___lldiv@divisor+2),f
  4322  0FAC  0DF3               	rlf	(___lldiv@divisor+3),f
  4323  0FAD  0BF8               	decfsz	(??___lldiv+0)+0
  4324  0FAE  2FA8               	goto	u2985
  4325                           	line	14
  4326  0FAF  3001               	movlw	(01h)
  4327  0FB0  00F8               	movwf	(??___lldiv+0)+0
  4328  0FB1  0878               	movf	(??___lldiv+0)+0,w
  4329  0FB2  07FD               	addwf	(___lldiv@counter),f
  4330  0FB3  2FB4               	goto	l2608
  4331                           	line	15
  4332                           	
  4333  0FB4                     l841:	
  4334                           	line	12
  4335                           	
  4336  0FB4                     l2608:	
  4337  0FB4  1FF3               	btfss	(___lldiv@divisor+3),(31)&7
  4338  0FB5  2FB7               	goto	u2991
  4339  0FB6  2FB8               	goto	u2990
  4340  0FB7                     u2991:
  4341  0FB7  2FA6               	goto	l2606
  4342  0FB8                     u2990:
  4343  0FB8  2FBA               	goto	l2610
  4344                           	
  4345  0FB9                     l843:	
  4346  0FB9  2FBA               	goto	l2610
  4347                           	line	16
  4348                           	
  4349  0FBA                     l844:	
  4350                           	line	17
  4351                           	
  4352  0FBA                     l2610:	
  4353  0FBA  3001               	movlw	01h
  4354  0FBB  00F8               	movwf	(??___lldiv+0)+0
  4355  0FBC                     u3005:
  4356  0FBC  1003               	clrc
  4357  0FBD  0DF9               	rlf	(___lldiv@quotient),f
  4358  0FBE  0DFA               	rlf	(___lldiv@quotient+1),f
  4359  0FBF  0DFB               	rlf	(___lldiv@quotient+2),f
  4360  0FC0  0DFC               	rlf	(___lldiv@quotient+3),f
  4361  0FC1  0BF8               	decfsz	(??___lldiv+0)+0
  4362  0FC2  2FBC               	goto	u3005
  4363                           	line	18
  4364                           	
  4365  0FC3                     l2612:	
  4366  0FC3  0873               	movf	(___lldiv@divisor+3),w
  4367  0FC4  0277               	subwf	(___lldiv@dividend+3),w
  4368  0FC5  1D03               	skipz
  4369  0FC6  2FD1               	goto	u3015
  4370  0FC7  0872               	movf	(___lldiv@divisor+2),w
  4371  0FC8  0276               	subwf	(___lldiv@dividend+2),w
  4372  0FC9  1D03               	skipz
  4373  0FCA  2FD1               	goto	u3015
  4374  0FCB  0871               	movf	(___lldiv@divisor+1),w
  4375  0FCC  0275               	subwf	(___lldiv@dividend+1),w
  4376  0FCD  1D03               	skipz
  4377  0FCE  2FD1               	goto	u3015
  4378  0FCF  0870               	movf	(___lldiv@divisor),w
  4379  0FD0  0274               	subwf	(___lldiv@dividend),w
  4380  0FD1                     u3015:
  4381  0FD1  1C03               	skipc
  4382  0FD2  2FD4               	goto	u3011
  4383  0FD3  2FD5               	goto	u3010
  4384  0FD4                     u3011:
  4385  0FD4  2FE5               	goto	l2618
  4386  0FD5                     u3010:
  4387                           	line	19
  4388                           	
  4389  0FD5                     l2614:	
  4390  0FD5  0870               	movf	(___lldiv@divisor),w
  4391  0FD6  02F4               	subwf	(___lldiv@dividend),f
  4392  0FD7  0871               	movf	(___lldiv@divisor+1),w
  4393  0FD8  1C03               	skipc
  4394  0FD9  0F71               	incfsz	(___lldiv@divisor+1),w
  4395  0FDA  02F5               	subwf	(___lldiv@dividend+1),f
  4396  0FDB  0872               	movf	(___lldiv@divisor+2),w
  4397  0FDC  1C03               	skipc
  4398  0FDD  0F72               	incfsz	(___lldiv@divisor+2),w
  4399  0FDE  02F6               	subwf	(___lldiv@dividend+2),f
  4400  0FDF  0873               	movf	(___lldiv@divisor+3),w
  4401  0FE0  1C03               	skipc
  4402  0FE1  0F73               	incfsz	(___lldiv@divisor+3),w
  4403  0FE2  02F7               	subwf	(___lldiv@dividend+3),f
  4404                           	line	20
  4405                           	
  4406  0FE3                     l2616:	
  4407  0FE3  1479               	bsf	(___lldiv@quotient)+(0/8),(0)&7
  4408  0FE4  2FE5               	goto	l2618
  4409                           	line	21
  4410                           	
  4411  0FE5                     l845:	
  4412                           	line	22
  4413                           	
  4414  0FE5                     l2618:	
  4415  0FE5  3001               	movlw	01h
  4416  0FE6                     u3025:
  4417  0FE6  1003               	clrc
  4418  0FE7  0CF3               	rrf	(___lldiv@divisor+3),f
  4419  0FE8  0CF2               	rrf	(___lldiv@divisor+2),f
  4420  0FE9  0CF1               	rrf	(___lldiv@divisor+1),f
  4421  0FEA  0CF0               	rrf	(___lldiv@divisor),f
  4422  0FEB  3EFF               	addlw	-1
  4423  0FEC  1D03               	skipz
  4424  0FED  2FE6               	goto	u3025
  4425                           
  4426                           	line	23
  4427                           	
  4428  0FEE                     l2620:	
  4429  0FEE  3001               	movlw	low(01h)
  4430  0FEF  02FD               	subwf	(___lldiv@counter),f
  4431  0FF0  1D03               	btfss	status,2
  4432  0FF1  2FF3               	goto	u3031
  4433  0FF2  2FF4               	goto	u3030
  4434  0FF3                     u3031:
  4435  0FF3  2FBA               	goto	l2610
  4436  0FF4                     u3030:
  4437  0FF4  2FF6               	goto	l2622
  4438                           	
  4439  0FF5                     l846:	
  4440  0FF5  2FF6               	goto	l2622
  4441                           	line	24
  4442                           	
  4443  0FF6                     l840:	
  4444                           	line	25
  4445                           	
  4446  0FF6                     l2622:	
  4447  0FF6  087C               	movf	(___lldiv@quotient+3),w
  4448  0FF7  00F3               	movwf	(?___lldiv+3)
  4449  0FF8  087B               	movf	(___lldiv@quotient+2),w
  4450  0FF9  00F2               	movwf	(?___lldiv+2)
  4451  0FFA  087A               	movf	(___lldiv@quotient+1),w
  4452  0FFB  00F1               	movwf	(?___lldiv+1)
  4453  0FFC  0879               	movf	(___lldiv@quotient),w
  4454  0FFD  00F0               	movwf	(?___lldiv)
  4455                           
  4456  0FFE  2FFF               	goto	l847
  4457                           	
  4458  0FFF                     l2624:	
  4459                           	line	26
  4460                           	
  4461  0FFF                     l847:	
  4462  0FFF  0008               	return
  4463                           	opt stack 0
  4464                           GLOBAL	__end_of___lldiv
  4465  1000                     	__end_of___lldiv:
  4466 ;; =============== function ___lldiv ends ============
  4467                           
  4468                           	signat	___lldiv,8316
  4469                           	global	___llmod
  4470                           psect	text260,local,class=CODE,delta=2
  4471                           global __ptext260
  4472  0F36                     __ptext260:
  4473                           
  4474 ;; *************** function ___llmod *****************
  4475 ;; Defined at:
  4476 ;;		line 5 in file "C:\Program Files\HI-TECH Software\sources\llmod.c"
  4477 ;; Parameters:    Size  Location     Type
  4478 ;;  divisor         4    0[COMMON] unsigned long 
  4479 ;;  dividend        4    4[COMMON] unsigned long 
  4480 ;; Auto vars:     Size  Location     Type
  4481 ;;  counter         1    9[COMMON] unsigned char 
  4482 ;; Return value:  Size  Location     Type
  4483 ;;                  4    0[COMMON] unsigned long 
  4484 ;; Registers used:
  4485 ;;		wreg, status,2, status,0
  4486 ;; Tracked objects:
  4487 ;;		On entry : 0/0
  4488 ;;		On exit  : 0/0
  4489 ;;		Unchanged: 0/0
  4490 ;; Data sizes:     COMMON   BANK0   BANK1   BANK3   BANK2
  4491 ;;      Params:         8       0       0       0       0
  4492 ;;      Locals:         1       0       0       0       0
  4493 ;;      Temps:          1       0       0       0       0
  4494 ;;      Totals:        10       0       0       0       0
  4495 ;;Total ram usage:       10 bytes
  4496 ;; Hardware stack levels used:    1
  4497 ;; This function calls:
  4498 ;;		Nothing
  4499 ;; This function is called by:
  4500 ;;		_send_dec
  4501 ;; This function uses a non-reentrant model
  4502 ;;
  4503                           psect	text260
  4504                           	file	"C:\Program Files\HI-TECH Software\sources\llmod.c"
  4505                           	line	5
  4506                           	global	__size_of___llmod
  4507  005C                     	__size_of___llmod	equ	__end_of___llmod-___llmod
  4508                           	
  4509  0F36                     ___llmod:	
  4510                           	opt	stack 6
  4511                           ; Regs used in ___llmod: [wreg+status,2+status,0]
  4512                           	line	8
  4513                           	
  4514  0F36                     l2582:	
  4515  0F36  0873               	movf	(___llmod@divisor+3),w
  4516  0F37  0472               	iorwf	(___llmod@divisor+2),w
  4517  0F38  0471               	iorwf	(___llmod@divisor+1),w
  4518  0F39  0470               	iorwf	(___llmod@divisor),w
  4519  0F3A  1903               	skipnz
  4520  0F3B  2F3D               	goto	u2911
  4521  0F3C  2F3E               	goto	u2910
  4522  0F3D                     u2911:
  4523  0F3D  2F88               	goto	l2598
  4524  0F3E                     u2910:
  4525                           	line	9
  4526                           	
  4527  0F3E                     l2584:	
  4528  0F3E  01F9               	clrf	(___llmod@counter)
  4529  0F3F  1403               	bsf	status,0
  4530  0F40  0DF9               	rlf	(___llmod@counter),f
  4531                           	line	10
  4532  0F41  2F50               	goto	l2588
  4533                           	
  4534  0F42                     l823:	
  4535                           	line	11
  4536                           	
  4537  0F42                     l2586:	
  4538  0F42  3001               	movlw	01h
  4539  0F43  00F8               	movwf	(??___llmod+0)+0
  4540  0F44                     u2925:
  4541  0F44  1003               	clrc
  4542  0F45  0DF0               	rlf	(___llmod@divisor),f
  4543  0F46  0DF1               	rlf	(___llmod@divisor+1),f
  4544  0F47  0DF2               	rlf	(___llmod@divisor+2),f
  4545  0F48  0DF3               	rlf	(___llmod@divisor+3),f
  4546  0F49  0BF8               	decfsz	(??___llmod+0)+0
  4547  0F4A  2F44               	goto	u2925
  4548                           	line	12
  4549  0F4B  3001               	movlw	(01h)
  4550  0F4C  00F8               	movwf	(??___llmod+0)+0
  4551  0F4D  0878               	movf	(??___llmod+0)+0,w
  4552  0F4E  07F9               	addwf	(___llmod@counter),f
  4553  0F4F  2F50               	goto	l2588
  4554                           	line	13
  4555                           	
  4556  0F50                     l822:	
  4557                           	line	10
  4558                           	
  4559  0F50                     l2588:	
  4560  0F50  1FF3               	btfss	(___llmod@divisor+3),(31)&7
  4561  0F51  2F53               	goto	u2931
  4562  0F52  2F54               	goto	u2930
  4563  0F53                     u2931:
  4564  0F53  2F42               	goto	l2586
  4565  0F54                     u2930:
  4566  0F54  2F56               	goto	l2590
  4567                           	
  4568  0F55                     l824:	
  4569  0F55  2F56               	goto	l2590
  4570                           	line	14
  4571                           	
  4572  0F56                     l825:	
  4573                           	line	15
  4574                           	
  4575  0F56                     l2590:	
  4576  0F56  0873               	movf	(___llmod@divisor+3),w
  4577  0F57  0277               	subwf	(___llmod@dividend+3),w
  4578  0F58  1D03               	skipz
  4579  0F59  2F64               	goto	u2945
  4580  0F5A  0872               	movf	(___llmod@divisor+2),w
  4581  0F5B  0276               	subwf	(___llmod@dividend+2),w
  4582  0F5C  1D03               	skipz
  4583  0F5D  2F64               	goto	u2945
  4584  0F5E  0871               	movf	(___llmod@divisor+1),w
  4585  0F5F  0275               	subwf	(___llmod@dividend+1),w
  4586  0F60  1D03               	skipz
  4587  0F61  2F64               	goto	u2945
  4588  0F62  0870               	movf	(___llmod@divisor),w
  4589  0F63  0274               	subwf	(___llmod@dividend),w
  4590  0F64                     u2945:
  4591  0F64  1C03               	skipc
  4592  0F65  2F67               	goto	u2941
  4593  0F66  2F68               	goto	u2940
  4594  0F67                     u2941:
  4595  0F67  2F77               	goto	l2594
  4596  0F68                     u2940:
  4597                           	line	16
  4598                           	
  4599  0F68                     l2592:	
  4600  0F68  0870               	movf	(___llmod@divisor),w
  4601  0F69  02F4               	subwf	(___llmod@dividend),f
  4602  0F6A  0871               	movf	(___llmod@divisor+1),w
  4603  0F6B  1C03               	skipc
  4604  0F6C  0F71               	incfsz	(___llmod@divisor+1),w
  4605  0F6D  02F5               	subwf	(___llmod@dividend+1),f
  4606  0F6E  0872               	movf	(___llmod@divisor+2),w
  4607  0F6F  1C03               	skipc
  4608  0F70  0F72               	incfsz	(___llmod@divisor+2),w
  4609  0F71  02F6               	subwf	(___llmod@dividend+2),f
  4610  0F72  0873               	movf	(___llmod@divisor+3),w
  4611  0F73  1C03               	skipc
  4612  0F74  0F73               	incfsz	(___llmod@divisor+3),w
  4613  0F75  02F7               	subwf	(___llmod@dividend+3),f
  4614  0F76  2F77               	goto	l2594
  4615                           	
  4616  0F77                     l826:	
  4617                           	line	17
  4618                           	
  4619  0F77                     l2594:	
  4620  0F77  3001               	movlw	01h
  4621  0F78                     u2955:
  4622  0F78  1003               	clrc
  4623  0F79  0CF3               	rrf	(___llmod@divisor+3),f
  4624  0F7A  0CF2               	rrf	(___llmod@divisor+2),f
  4625  0F7B  0CF1               	rrf	(___llmod@divisor+1),f
  4626  0F7C  0CF0               	rrf	(___llmod@divisor),f
  4627  0F7D  3EFF               	addlw	-1
  4628  0F7E  1D03               	skipz
  4629  0F7F  2F78               	goto	u2955
  4630                           
  4631                           	line	18
  4632                           	
  4633  0F80                     l2596:	
  4634  0F80  3001               	movlw	low(01h)
  4635  0F81  02F9               	subwf	(___llmod@counter),f
  4636  0F82  1D03               	btfss	status,2
  4637  0F83  2F85               	goto	u2961
  4638  0F84  2F86               	goto	u2960
  4639  0F85                     u2961:
  4640  0F85  2F56               	goto	l2590
  4641  0F86                     u2960:
  4642  0F86  2F88               	goto	l2598
  4643                           	
  4644  0F87                     l827:	
  4645  0F87  2F88               	goto	l2598
  4646                           	line	19
  4647                           	
  4648  0F88                     l821:	
  4649                           	line	20
  4650                           	
  4651  0F88                     l2598:	
  4652  0F88  0877               	movf	(___llmod@dividend+3),w
  4653  0F89  00F3               	movwf	(?___llmod+3)
  4654  0F8A  0876               	movf	(___llmod@dividend+2),w
  4655  0F8B  00F2               	movwf	(?___llmod+2)
  4656  0F8C  0875               	movf	(___llmod@dividend+1),w
  4657  0F8D  00F1               	movwf	(?___llmod+1)
  4658  0F8E  0874               	movf	(___llmod@dividend),w
  4659  0F8F  00F0               	movwf	(?___llmod)
  4660                           
  4661  0F90  2F91               	goto	l828
  4662                           	
  4663  0F91                     l2600:	
  4664                           	line	21
  4665                           	
  4666  0F91                     l828:	
  4667  0F91  0008               	return
  4668                           	opt stack 0
  4669                           GLOBAL	__end_of___llmod
  4670  0F92                     	__end_of___llmod:
  4671 ;; =============== function ___llmod ends ============
  4672                           
  4673                           	signat	___llmod,8316
  4674                           	global	_delay
  4675                           psect	text261,local,class=CODE,delta=2
  4676                           global __ptext261
  4677  0EA6                     __ptext261:
  4678                           
  4679 ;; *************** function _delay *****************
  4680 ;; Defined at:
  4681 ;;		line 292 in file "C:\Users\Phang\Desktop\9.80\PR 25\PR25.c"
  4682 ;; Parameters:    Size  Location     Type
  4683 ;;  data            4    0[COMMON] unsigned long 
  4684 ;; Auto vars:     Size  Location     Type
  4685 ;;  i               2    4[COMMON] int 
  4686 ;; Return value:  Size  Location     Type
  4687 ;;		None               void
  4688 ;; Registers used:
  4689 ;;		wreg, status,2, status,0, btemp+1
  4690 ;; Tracked objects:
  4691 ;;		On entry : 0/0
  4692 ;;		On exit  : 0/0
  4693 ;;		Unchanged: 0/0
  4694 ;; Data sizes:     COMMON   BANK0   BANK1   BANK3   BANK2
  4695 ;;      Params:         4       0       0       0       0
  4696 ;;      Locals:         2       0       0       0       0
  4697 ;;      Temps:          0       0       0       0       0
  4698 ;;      Totals:         6       0       0       0       0
  4699 ;;Total ram usage:        6 bytes
  4700 ;; Hardware stack levels used:    1
  4701 ;; This function calls:
  4702 ;;		Nothing
  4703 ;; This function is called by:
  4704 ;;		_main
  4705 ;;		_init
  4706 ;;		_send_config
  4707 ;;		_send_char
  4708 ;;		_e_pulse
  4709 ;;		_lcd_clr
  4710 ;; This function uses a non-reentrant model
  4711 ;;
  4712                           psect	text261
  4713                           	file	"C:\Users\Phang\Desktop\9.80\PR 25\PR25.c"
  4714                           	line	292
  4715                           	global	__size_of_delay
  4716  002A                     	__size_of_delay	equ	__end_of_delay-_delay
  4717                           	
  4718  0EA6                     _delay:	
  4719                           	opt	stack 4
  4720                           ; Regs used in _delay: [wreg+status,2+status,0+btemp+1]
  4721                           	line	294
  4722                           	
  4723  0EA6                     l2572:	
  4724                           ;PR25.c: 293: int i;
  4725                           ;PR25.c: 294: for( i = data; i>0; i--);
  4726  0EA6  0871               	movf	(delay@data+1),w
  4727  0EA7  01F5               	clrf	(delay@i+1)
  4728  0EA8  07F5               	addwf	(delay@i+1)
  4729  0EA9  0870               	movf	(delay@data),w
  4730  0EAA  01F4               	clrf	(delay@i)
  4731  0EAB  07F4               	addwf	(delay@i)
  4732                           
  4733                           	
  4734  0EAC                     l2574:	
  4735  0EAC  0875               	movf	(delay@i+1),w
  4736  0EAD  3A80               	xorlw	80h
  4737  0EAE  00FF               	movwf	btemp+1
  4738  0EAF  3080               	movlw	(high(01h))^80h
  4739  0EB0  027F               	subwf	btemp+1,w
  4740  0EB1  1D03               	skipz
  4741  0EB2  2EB5               	goto	u2895
  4742  0EB3  3001               	movlw	low(01h)
  4743  0EB4  0274               	subwf	(delay@i),w
  4744  0EB5                     u2895:
  4745                           
  4746  0EB5  1803               	skipnc
  4747  0EB6  2EB8               	goto	u2891
  4748  0EB7  2EB9               	goto	u2890
  4749  0EB8                     u2891:
  4750  0EB8  2EBB               	goto	l2578
  4751  0EB9                     u2890:
  4752  0EB9  2ECF               	goto	l621
  4753                           	
  4754  0EBA                     l2576:	
  4755  0EBA  2ECF               	goto	l621
  4756                           	
  4757  0EBB                     l619:	
  4758                           	
  4759  0EBB                     l2578:	
  4760  0EBB  30FF               	movlw	low(-1)
  4761  0EBC  07F4               	addwf	(delay@i),f
  4762  0EBD  1803               	skipnc
  4763  0EBE  0AF5               	incf	(delay@i+1),f
  4764  0EBF  30FF               	movlw	high(-1)
  4765  0EC0  07F5               	addwf	(delay@i+1),f
  4766                           	
  4767  0EC1                     l2580:	
  4768  0EC1  0875               	movf	(delay@i+1),w
  4769  0EC2  3A80               	xorlw	80h
  4770  0EC3  00FF               	movwf	btemp+1
  4771  0EC4  3080               	movlw	(high(01h))^80h
  4772  0EC5  027F               	subwf	btemp+1,w
  4773  0EC6  1D03               	skipz
  4774  0EC7  2ECA               	goto	u2905
  4775  0EC8  3001               	movlw	low(01h)
  4776  0EC9  0274               	subwf	(delay@i),w
  4777  0ECA                     u2905:
  4778                           
  4779  0ECA  1803               	skipnc
  4780  0ECB  2ECD               	goto	u2901
  4781  0ECC  2ECE               	goto	u2900
  4782  0ECD                     u2901:
  4783  0ECD  2EBB               	goto	l2578
  4784  0ECE                     u2900:
  4785  0ECE  2ECF               	goto	l621
  4786                           	
  4787  0ECF                     l620:	
  4788                           	line	295
  4789                           	
  4790  0ECF                     l621:	
  4791  0ECF  0008               	return
  4792                           	opt stack 0
  4793                           GLOBAL	__end_of_delay
  4794  0ED0                     	__end_of_delay:
  4795 ;; =============== function _delay ends ============
  4796                           
  4797                           	signat	_delay,4216
  4798                           psect	text262,local,class=CODE,delta=2
  4799                           global __ptext262
  4800  0000                     __ptext262:
  4801                           	global	btemp
  4802  007E                     	btemp set 07Eh
  4803                           
  4804                           	DABS	1,126,2	;btemp
  4805                           	global	wtemp0
  4806  007E                     	wtemp0 set btemp


HI-TECH Software PICC Macro Assembler V9.80 build 6738 
Symbol Table                                                                                   Wed Jun 20 23:08:49 2012

                   pc 0002                    fsr 0004                   l600 0687                   l520 03EF  
                 l601 069E                   l610 07E6                   l602 06C8                   l530 0413  
                 l522 03EB                   l611 07FC                   l603 0711                   l523 03F9  
                 l515 03A3                   l620 0ECF                   l612 07FD                   l604 06F2  
                 l540 0438                   l532 041C                   l524 03F8                   l516 03BA  
                 l621 0ECF                   l613 07FD                   l605 0709                   l541 0487  
                 l533 041D                   l525 0400                   l517 03BB                   l630 00FC  
                 l606 07C2                   l526 0530                   l550 045B                   l542 043F  
                 l534 043A                   l518 03F9                   l631 0140                   l607 0712  
                 l543 0440                   l535 0439                   l527 0401                   l519 03E2  
                 l624 0E28                   l616 0F35                   l640 0349                   l632 0184  
                 l608 0767                   l560 0480                   l552 0464                   l544 0440  
                 l536 042E                   l528 041E                   l633 01C8                   l609 07CF  
                 l561 048E                   l553 0465                   l537 042E                   l529 0413  
                 l634 020C                   l570 0621                   l562 04AC                   l554 0482  
                 l546 0449                   l619 0EBB                   l643 0E7F                   l627 0E41  
                 l651 00B7                   l635 0250                   l571 053A                   l563 04C3  
                 l555 0481                   l547 0449                   l539 0437                   l636 0294  
                 l572 05A2                   l580 0576                   l564 04D0                   l556 0476  
                 l548 0466                   l821 0F88                   l637 02D8                   l581 0576  
                 l573 0558                   l565 04F0                   l557 0476                   l549 045B  
                 l822 0F50                   l646 0E51                   l654 0E93                   l638 031C  
                 l590 059A                   l574 0559                   l566 04FD                   l823 0F42  
                 l647 0E5E                   l655 0E82                   l639 0349                   l591 059B  
                 l583 057F                   l575 0559                   l567 052A                   l559 047F  
                 l824 0F55                   l840 0FF6                   l648 0E5E                   l592 05AB  
                 l584 0580                   l568 051F                   l825 0F56                   l841 0FB4  
                 l657 0EA4                   l593 05C9                   l585 059D                   l577 0564  
                 l569 0539                   l826 0F77                   l842 0FA6                   l658 0EA5  
                 l594 05E0                   l586 059C                   l578 0564                   l827 0F87  
                 l843 0FB9                   l659 0EA5                   l595 05ED                   l587 0591  
                 l579 0581                   l828 0F91                   l844 0FBA                   l596 060D  
                 l588 0591                   l845 0FE5                   l597 062A                   l846 0FF5  
                 l598 07B8                   l847 0FFF                   l599 062B                   _RA0 0028  
                 _RA1 0029                   _RA4 002C                   _RC1 0039                   _RC2 003A  
                 _RC3 003B                   _RC4 003C                   _RC5 003D                   fsr0 0004  
                 indf 0000       send_config@data 0076                  l3000 0703                  l3010 0725  
                l3002 0709                  l3020 0769                  l3012 072B                  l3004 070B  
                l3030 0799                  l3022 076F                  l3014 0743                  l3006 0714  
                l3040 07C8                  l3032 07AA                  l3024 0775                  l3016 0749  
                l3008 071F                  l3042 07CE                  l3050 07E6                  l3034 07B7  
                l3026 077B                  l3018 075A                  l3052 07EB                  l3044 07CF  
                l3028 0793                  l3036 07B8                  l3054 07F1                  l3046 07DC  
                l3038 07C2                  l2600 0F91                  l3056 07F7                  l3048 07E0  
                l2610 0FBA                  l2602 0F92                  l2620 0FEE                  l2612 0FC3  
                l2604 0FA2                  l2700 0104                  l2614 0FD5                  l2606 0FA6  
                l2622 0FF6                  l2630 0E6F                  l2710 0184                  l2702 0123  
                l2624 0FFF                  l2616 0FE3                  l2608 0FB4                  l2632 0E11  
                l2640 0E2A                  l2720 01EF                  l2712 018C                  l2704 0140  
                l2800 03D5                  l2618 0FE5                  l2626 0E5F                  l2634 0E14  
                l2642 0E2D                  l2650 0F00                  l2730 0258                  l2722 020C  
                l2714 01AB                  l2706 0148                  l2810 0405                  l2802 03DB  
                l2580 0EC1                  l2572 0EA6                  l2628 0E62                  l2636 0E16  
                l2644 0E2F                  l2660 0F15                  l2652 0F01                  l2740 02D8  
                l2732 0277                  l2724 0214                  l2716 01C8                  l2708 0167  
                l2900 057A                  l2820 0432                  l2812 0409                  l2804 03E6  
                l2574 0EAC                  l2590 0F56                  l2582 0F36                  l2638 0E23  
                l2646 0E3C                  l2670 0F34                  l2662 0F1B                  l2654 0F03  
                l2750 0341                  l2742 02E0                  l2734 0294                  l2726 0233  
                l2718 01D0                  l2902 0585                  l2910 05A2                  l2830 045F  
                l2814 0417                  l2822 043A                  l2806 03EB                  l2576 0EBA  
                l2592 0F68                  l2584 0F3E                  l2664 0F21                  l2656 0F09  
                l2648 0EFA                  l2672 00A4                  l2680 0E56                  l2744 02FF  
                l2736 029C                  l2728 0250                  l2920 05C8                  l2912 05AB  
                l2904 0589                  l2832 046A                  l2824 0444                  l2840 0487  
                l2816 0422                  l2808 03F3                  l2760 0360                  l2752 034A  
                l2578 0EBB                  l2594 0F77                  l2586 0F42                  l2666 0F24  
                l2658 0F0F                  l2674 0E43                  l2690 0E97                  l2682 0E81  
                l2746 031C                  l2738 02BB                  l2930 05E5                  l2922 05C9  
                l2914 05B5                  l2906 0595                  l2850 04AB                  l2842 048E  
                l2834 046E                  l2826 044D                  l2818 0426                  l2770 037E  
                l2762 0368                  l2754 0351                  l2596 0F80                  l2588 0F50  
                l2668 0F31                  l2676 0E49                  l2684 0E82                  l2748 0322  
                l2692 00B8                  l2932 05EC                  l2940 060D                  l2924 05D5  
                l2916 05BA                  l2908 059D                  l2860 04C8                  l2852 04AC  
                l2844 0498                  l2836 047A                  l2828 0451                  l2780 039C  
                l2772 0384                  l2764 036D                  l2756 0355                  l2598 0F88  
                l2678 0E51                  l2686 0E8E                  l2694 00C0                  l2950 062D  
                l2942 0611                  l2934 05ED                  l2926 05D9                  l2918 05C1  
                l2862 04CF                  l2870 04F0                  l2854 04B8                  l2846 049D  
                l2838 0482                  l2782 03A2                  l2790 03BB                  l2774 038A  
                l2766 0379                  l2758 035A                  l2688 0E93                  l2696 00DF  
                l2960 065D                  l2952 0633                  l2944 0617                  l2936 0602  
                l2928 05E0                  l2880 051B                  l2872 04F5                  l2864 04D0  
                l2856 04BC                  l2848 04A4                  l2792 03C0                  l2784 03A3  
                l2776 0390                  l2768 037D                  l2698 00FC                  l2970 0687  
                l2962 066E                  l2954 0639                  l2946 061B                  l2938 0606  
                l2890 0545                  l2882 051F                  l2874 04FC                  l2866 04E5  
                l2858 04C3                  l2794 03C4                  l2786 03B0                  l2778 0396  
                l2980 06AF                  l2972 0694                  l2964 067A                  l2956 063F  
                l2892 054B                  l2948 0621                  l2884 052A                  l2876 04FD  
                l2868 04E9                  l2796 03C9                  l2788 03B4                  l2990 06E5  
                l2982 06BB                  l2974 0698                  l2966 0680                  l2958 0657  
                l2894 055F                  l2878 0507                  l2886 0530                  l2798 03CF  
                l2992 06EB                  l2984 06C1                  l2968 0686                  l2976 069E  
                l2896 0568                  l2888 053A                  l2994 06F1                  l2986 06C7  
                l2978 06A9                  l2898 056C                  l2996 06F2                  l2988 06C8  
                l2998 06FF                  STR_1 0086                  STR_2 0091                  STR_3 003D  
                STR_4 0078                  STR_5 001B                  STR_6 003C                  STR_7 009B  
                STR_8 0009                  STR_9 005B                  u3010 0FD5                  u3011 0FD4  
                u3100 018C                  u3005 0FBC                  u3101 018B                  u3030 0FF4  
                u3110 01D0                  u3031 0FF3                  u3015 0FD1                  u3111 01CF  
                u3040 0E49                  u3120 0214                  u3200 03EA                  u3025 0FE6  
                u3041 0E48                  u3121 0213                  u3201 03E9                  u3050 0E97  
                u3130 0258                  u3210 03F3                  u3131 0257                  u3211 03F2  
                u3060 0EA3                  u3140 029C                  u3300 0436                  u3220 03FF  
                u3061 0EA2                  u3141 029B                  u3301 0435                  u3150 02E0  
                u3070 00C0                  u3310 0444                  u3230 0405                  u3151 02DF  
                u3071 00BF                  u3311 0443                  u3231 0404                  u3160 0322  
                u3080 0104                  u3400 047E                  u3320 0448                  u3240 0409  
                u3081 0103                  u3401 047D                  u3321 0447                  u3241 0408  
                u3090 0148                  u3410 048D                  u3330 044D                  u3250 0417  
                u3170 03A1                  u3091 0147                  u3411 048C                  u3331 044C  
                u3251 0416                  u3171 03A0                  u3500 0529                  u3420 04AA  
                u3340 0451                  u3260 041B                  u3180 03B9                  u3501 0528  
                u3421 04A9                  u3341 0450                  u3261 041A                  u3181 03B8  
                u3510 0538                  u3430 04C2                  u3350 045F                  u3270 0422  
                u3190 03E6                  u3511 0537                  u3431 04C1                  u3351 045E  
                u3271 0421                  u3191 03E5                  u3600 0595                  u3520 055F  
                u3440 04CE                  u3360 0463                  u3280 0426                  u3601 0594  
                u3521 055E                  u3441 04CD                  u3361 0462                  u3281 0425  
                u3610 0599                  u3530 0563                  u3370 046A                  u3290 0432  
                u3611 0598                  u3531 0562                  u3371 0469                  u3291 0431  
                u2900 0ECE                  u3700 069D                  u3620 05AA                  u3540 0568  
                u3460 04EF                  u3380 046E                  u2901 0ECD                  u3701 069C  
                u3621 05A9                  u3541 0567                  u3461 04EE                  u3381 046D  
                u2910 0F3E                  u3710 06C6                  u3630 05C7                  u3550 056C  
                u3470 04FB                  u3390 047A                  u2911 0F3D                  u3711 06C5  
                u3631 05C6                  u3551 056B                  u3471 04FA                  u3455 04D6  
                u3391 0479                  u3720 06F0                  u3640 05DF                  u3560 057A  
                u3480 0507                  u2905 0ECA                  u3721 06EF                  u3641 05DE  
                u3561 0579                  u3481 0506                  u2930 0F54                  u3730 0708  
                u3650 05EB                  u3570 057E                  u3490 051B                  u2931 0F53  
                u3731 0707                  u3651 05EA                  u3571 057D                  u3491 051A  
                u2940 0F68                  u3740 0710                  u3580 0585                  u2941 0F67  
                u2925 0F44                  u3741 070F                  u3581 0584                  u3750 07CD  
                u3670 060C                  u3590 0589                  u3751 07CC                  u3671 060B  
                u3591 0588                  u3495 0517                  u2960 0F86                  u3760 07E5  
                u3680 0629                  u2961 0F85                  u2945 0F64                  u3761 07E4  
                u3681 0628                  u3665 05F3                  u2890 0EB9                  u2970 0FA2  
                u3690 0685                  u2891 0EB8                  u2955 0F78                  u2971 0FA1  
                u3691 0684                  u2990 0FB8                  u2895 0EB5                  u2991 0FB7  
                u2985 0FA8                  _main 034A                  _init 0EFA                  btemp 007E  
        lcd_goto@data 0078                  start 0000          main@database 0044                 ?_main 0070  
               ?_init 0070          main@convert1 0050          main@convert2 004E                 STR_10 006A  
               STR_11 009B                 STR_12 004C                 STR_13 009B                 STR_14 002C  
     __end_of___lldiv 1000       __end_of___llmod 0F92                 _PORTB 0006                 _TRISA 0085  
               _TRISB 0086                 _TRISC 0087       __end_of_e_pulse 0E80       __end_of_lcd_clr 00B8  
               _delay 0EA6                 main@a 004B                 main@b 004D                 main@i 0052  
               pclath 000A                 status 0003                 wtemp0 007E          __end_of_main 0800  
        __end_of_init 0F36                ??_main 0025                ??_init 0077                ?_delay 0070  
        ?_send_config 0070                _ADCON1 009F      ___llmod@dividend 0074          ?_send_string 0070  
    __end_of_lcd_goto 0E5F             ??___lldiv 0078             ??___llmod 0078                delay@i 0074  
           ??_e_pulse 0076             ??_lcd_clr 0077      __end_of_send_dec 034A        __pcstackCOMMON 0070  
        __pidataBANK0 0E0A         __end_of_delay 0ED0               ??_delay 0074            __pmaintext 034A  
  __size_of_send_char 0019             ?_lcd_goto 0070  __size_of_send_config 0019  __size_of_send_string 0026  
           ?_send_dec 0020               ___lldiv 0F92               ___llmod 0F36               _e_pulse 0E5F  
             _lcd_clr 00A4               main@id1 0049               main@id2 0045            ??_lcd_goto 0077  
end_of_initialization 0EF6     __end_of_send_char 0E42       ___lldiv@divisor 0070            ??_send_dec 007E  
     ___lldiv@counter 007D         send_char@data 0076            main@repeat 0051   start_initialization 0ED0  
     ___llmod@divisor 0070       ___llmod@counter 0079           __pdataBANK0 0053         __pcstackBANK0 0020  
   __size_of_lcd_goto 001D     __size_of_send_dec 0292             __ptext251 00B8             __ptext260 0F36  
           __ptext252 0E80             __ptext261 0EA6             __ptext253 0E42             __ptext262 0000  
           __ptext254 00A4             __ptext255 0EFA             __ptext256 0E29             __ptext257 0E10  
           __ptext258 0E5F             __ptext259 0F92              ?___lldiv 0070              ?___llmod 0070  
            ?_e_pulse 0070             __pstrings 0003              ?_lcd_clr 0070         ??_send_config 0076  
      __size_of_delay 002A             delay@data 0070         ??_send_string 0077             _send_char 0E29  
        send_dec@data 0020           __stringbase 0008   __end_of_send_config 0E29            ?_send_char 0070  
        send_string@s 0078   __end_of_send_string 0EA6      __size_of___lldiv 006E      __size_of___llmod 005C  
    __size_of_e_pulse 0021      __size_of_lcd_clr 0014              _lcd_goto 0E42         __size_of_main 04B6  
       __size_of_init 003C              _send_dec 00B8       send_dec@num_dig 0024              main@F481 0057  
            main@F483 0053              main@data 002A              main@mode 004C           _send_config 0E10  
         _send_string 0E80      ___lldiv@dividend 0074           ??_send_char 0076             stringcode 0003  
    ___lldiv@quotient 0079              stringdir 0003              stringtab 0003  
